(lp0
(imin_path.mod_minpath
minpath
p1
(dp2
S'a'
p3
F10.71552003329618
sS'symdata'
p4
S'!!!======================================================================\n!!! generated configuration file\n!!!======================================================================\n0 !! action_type\n4 !! NOB\n2 !! dim\n1  !! sizekerT\n1 !! perm j=1\n2 !! perm j=2\n3 !! perm j=3\n4 !! perm j=4\n1.0D0 !! matrix (j,k)=(1,1)\n0.0D0 !! matrix (j,k)=(1,2)\n0.0D0 !! matrix (j,k)=(2,1)\n1.0D0 !! matrix (j,k)=(2,2)\n6  !! cyclic_order\n1 !! cyclic_perm j=1\n2 !! cyclic_perm j=2\n4 !! cyclic_perm j=3\n3 !! cyclic_perm j=4\n-0.5D0 !! cyclic_matrix (j,k)=(1,1)\n-0.8660254037844386D0  !!! imag= 5.8286708792820718e-16 !! cyclic_matrix (j,k)=(1,2)\n0.8660254037844386D0  !!! imag= -5.8286708792820718e-16 !! cyclic_matrix (j,k)=(2,1)\n-0.5D0 !! cyclic_matrix (j,k)=(2,2)\n1 !! cyclic_perm j=1\n2 !! cyclic_perm j=2\n3 !! cyclic_perm j=3\n4 !! cyclic_perm j=4\n-0.5D0 !! cyclic_matrix (j,k)=(1,1)\n0.8660254037844386D0  !!! imag= -5.8286708792820718e-16 !! cyclic_matrix (j,k)=(1,2)\n-0.8660254037844386D0  !!! imag= 5.8286708792820718e-16 !! cyclic_matrix (j,k)=(2,1)\n-0.5D0 !! cyclic_matrix (j,k)=(2,2)\n1 !! cyclic_perm j=1\n2 !! cyclic_perm j=2\n4 !! cyclic_perm j=3\n3 !! cyclic_perm j=4\n1.0D0 !! cyclic_matrix (j,k)=(1,1)\n0.0D0 !! cyclic_matrix (j,k)=(1,2)\n0.0D0 !! cyclic_matrix (j,k)=(2,1)\n1.0D0 !! cyclic_matrix (j,k)=(2,2)\n1 !! cyclic_perm j=1\n2 !! cyclic_perm j=2\n3 !! cyclic_perm j=3\n4 !! cyclic_perm j=4\n-0.5D0 !! cyclic_matrix (j,k)=(1,1)\n-0.8660254037844386D0  !!! imag= 5.8286708792820718e-16 !! cyclic_matrix (j,k)=(1,2)\n0.8660254037844386D0  !!! imag= -5.8286708792820718e-16 !! cyclic_matrix (j,k)=(2,1)\n-0.5D0 !! cyclic_matrix (j,k)=(2,2)\n1 !! cyclic_perm j=1\n2 !! cyclic_perm j=2\n4 !! cyclic_perm j=3\n3 !! cyclic_perm j=4\n-0.5D0 !! cyclic_matrix (j,k)=(1,1)\n0.8660254037844386D0  !!! imag= -5.8286708792820718e-16 !! cyclic_matrix (j,k)=(1,2)\n-0.8660254037844386D0  !!! imag= 5.8286708792820718e-16 !! cyclic_matrix (j,k)=(2,1)\n-0.5D0 !! cyclic_matrix (j,k)=(2,2)\n1 !! cyclic_perm j=1\n2 !! cyclic_perm j=2\n3 !! cyclic_perm j=3\n4 !! cyclic_perm j=4\n1.0D0 !! cyclic_matrix (j,k)=(1,1)\n0.0D0 !! cyclic_matrix (j,k)=(1,2)\n0.0D0 !! cyclic_matrix (j,k)=(2,1)\n1.0D0 !! cyclic_matrix (j,k)=(2,2)\n'
p5
sS'TODOLIST'
p6
(lp7
S'new()'
p8
aS'relax(200)'
p9
asS'NOB'
p10
I4
sS'withcoll'
p11
I0
sS'todo'
p12
S''
p13
sS'omega'
p14
(lp15
F0.0
aF0.0
aF0.0
asS'massdata'
p16
S' 1.000000000000000000000000e+00 !! m(1)\n 1.000000000000000000000000e+00 !! m(2)\n 1.000000000000000000000000e+00 !! m(3)\n 1.000000000000000000000000e+00 !! m(4)\n'
p17
sS'dim'
p18
I2
sS'gammadata'
p19
S' 4 2 24  !! NOB,dim,steps\n 0.000000000000000E+00 0.000000000000000E+00 0.000000000000000E+00  !! omega\n 1.000000000000000  !! ALPHA\n 1.000000000000000  !! m( 1 )\n 1.000000000000000  !! m( 2 )\n 1.000000000000000  !! m( 3 )\n 1.000000000000000  !! m( 4 )\n 0.5772072583622123 -0.5857024272768934\n 0.3353935190161859 0.2035685013474519\n 3.136411432800482E-03 -6.727614958052530E-02\n 9.554809949199737E-03 -5.170347951128060E-03\n -2.659194969143438E-04 -7.847427933746934E-03\n 2.038330971096424E-03 -1.080155888076063E-05\n -3.999639215070930E-06 -2.018915277300406E-03\n 7.449717606789709E-04 1.280986019186253E-05\n 3.680543735238521E-06 -8.553224828734313E-04\n 3.446412425683063E-04 1.324424917754224E-06\n 2.756703126572183E-06 -4.318941207437431E-04\n 1.856555559818470E-04 1.319190685662497E-06\n 1.954081504901503E-06 -2.454535425443425E-04\n 1.103772810914012E-04 9.407472194774560E-07\n 1.348151344080038E-06 -1.514599808019627E-04\n 7.029009309833588E-05 6.487449398534398E-07\n 9.425183334867875E-07 -9.909362529753669E-05\n 4.707028355955130E-05 4.581140518313215E-07\n 6.727316273665018E-07 -6.771292188014226E-05\n 3.273505122133175E-05 3.302943691050823E-07\n 4.895666835025335E-07 -4.782131174426970E-05\n 2.343073829402437E-05 2.433922967154346E-07\n 3.591822441417758E-07 -3.464098781374518E-05\n 1.714402643675130E-05 1.730427326494637E-07\n 2.792292929556638E-07 -2.559581272753607E-05\n 0.2186295518988912 0.7927273626288903\n -0.5772076058935157 0.5857025802863536\n -0.3353933639110741 -0.2035681237510863\n -3.136542725570762E-03 6.727626235264580E-02\n -9.554872524774737E-03 5.170332415861612E-03\n 2.659140056417396E-04 7.847412018035807E-03\n -2.038325597753507E-03 1.079558419621839E-05\n 4.001179017328960E-06 2.018915283014943E-03\n -7.449727356616054E-04 -1.280861641017941E-05\n -3.682222386344009E-06 8.553232761576149E-04\n -3.446407611474485E-04 -1.324759290578358E-06\n -2.756818894666729E-06 4.318937400345896E-04\n -1.856551943761832E-04 -1.319450703294624E-06\n -1.954697172271467E-06 2.454537330358188E-04\n -1.103775802240180E-04 -9.409969421678041E-07\n -1.348519383306736E-06 1.514594797011751E-04\n -7.029010341612829E-05 -6.488722493319644E-07\n -9.427882954902230E-07 9.909363141633398E-05\n -4.707039626949781E-05 -4.582304164674016E-07\n -6.729016466641875E-07 6.771289160165963E-05\n -3.273494891169876E-05 -3.304409546422479E-07\n -4.898729571001356E-07 4.782134069510014E-05\n -2.343080857522502E-05 -2.434336266640127E-07\n -3.592437233353109E-07 3.464098278790396E-05\n -1.714403899886037E-05 -1.730863376818090E-07\n -2.793766370589993E-07 2.559583559325935E-05\n -0.2186295106433191 -0.7927277401045578\n -2.683447200376013 -0.6134230003862304\n -0.3654907988661349 0.1190751547848251\n -1.771375101684744E-02 -2.314447585518425E-02\n -1.197255701423789E-02 -1.570422026317166E-04\n -2.415709827224121E-04 -3.103304446588320E-03\n -2.350717975792781E-03 4.375261421863032E-04\n -1.384060653565229E-04 -8.029032871309691E-04\n -8.928226570898805E-04 1.754182586325560E-04\n -6.770897241871617E-05 -3.429778828956224E-04\n -4.161134432617308E-04 8.080743201443379E-05\n -3.409258904767554E-05 -1.740226585184683E-04\n -2.246989875536923E-04 4.421665183341957E-05\n -1.957162130055972E-05 -9.912907612142838E-05\n -1.338346290697485E-04 2.650659591751142E-05\n -1.215674073900815E-05 -6.125450338890365E-05\n -8.532701846027785E-05 1.696213079864804E-05\n -7.985041810895362E-06 -4.011335456029511E-05\n -5.718294211441640E-05 1.139641554000160E-05\n -5.471454510589920E-06 -2.742740299155658E-05\n -3.978922408907903E-05 7.943954488710114E-06\n -3.871348998233515E-06 -1.937922718496478E-05\n -2.849294516842950E-05 5.696092235219700E-06\n -2.807994993045708E-06 -1.404248496103766E-05\n -2.085968163160774E-05 4.173209598951587E-06\n -2.077555208871026E-06 -1.037471595430179E-05\n -1.872963543043725 2.017222322522410\n 2.683447547907316 0.6134228473767701\n 0.3654906437610231 -0.1190755323811908\n 1.771388230961775E-02 2.314436308306371E-02\n 1.197261958981289E-02 1.570577378981683E-04\n 2.415764739950163E-04 3.103320362299440E-03\n 2.350712602449864E-03 -4.375201675017593E-04\n 1.384045255542648E-04 8.029032814164327E-04\n 8.928236320725168E-04 -1.754195024142387E-04\n 6.771065106982123E-05 3.429770896114380E-04\n 4.161129618408732E-04 -8.080709764160792E-05\n 3.409270481577009E-05 1.740230392276209E-04\n 2.246986259480285E-04 -4.421639181578747E-05\n 1.957223696792968E-05 9.912888562995189E-05\n 1.338349282023651E-04 -2.650634619482112E-05\n 1.215710877823495E-05 6.125500448969212E-05\n 8.532702877807048E-05 -1.696200348916957E-05\n 7.985311772898851E-06 4.011334844149785E-05\n 5.718305482436290E-05 -1.139629917536552E-05\n 5.471624529887822E-06 2.742743327003899E-05\n 3.978912177943217E-05 -7.943807903172950E-06\n 3.871655271831144E-06 1.937919823413433E-05\n 2.849301544963017E-05 -5.696050905271122E-06\n 2.808056472239134E-06 1.404248998687888E-05\n 2.085969419371675E-05 -4.173165993918374E-06\n 2.077702552974415E-06 1.037469308857840E-05\n 1.872963501788154 -2.017221945046743\n'
p20
sS'log'
p21
g13
sS'SPMETHOD'
p22
I1
sS'h'
p23
F2.732551284131674e-06
sS'masses'
p24
(lp25
F1.0
aF1.0
aF1.0
aF1.0
asS'symfilename'
p26
g13
sS'invalid'
p27
I0
sS'steps'
p28
I24
sS'ALPHA'
p29
F1.0
sS'confdata'
p30
S'!! CONFIG STRING\n&CONFIG\nCOMMAND=howsol\nSPMETHOD=3\nALG=0\nsteps=24\nALPHA=1.000000000000000000000000e+00\n/\n0.000000000000000000000000e+00 !! omega(1)\n0.000000000000000000000000e+00 !! omega(2)\n0.000000000000000000000000e+00 !! omega(3)\n'
p31
sS'gamma'
p32
(lp33
(lp34
F0.57720725836221232
aF-0.58570242727689337
aa(lp35
F0.33539351901618591
aF0.20356850134745191
aa(lp36
F0.0031364114328004821
aF-0.067276149580525302
aa(lp37
F0.0095548099491997371
aF-0.0051703479511280596
aa(lp38
F-0.00026591949691434381
aF-0.0078474279337469345
aa(lp39
F0.0020383309710964238
aF-1.080155888076063e-05
aa(lp40
F-3.99963921507093e-06
aF-0.0020189152773004062
aa(lp41
F0.00074497176067897086
aF1.280986019186253e-05
aa(lp42
F3.6805437352385212e-06
aF-0.00085532248287343128
aa(lp43
F0.00034464124256830628
aF1.324424917754224e-06
aa(lp44
F2.756703126572183e-06
aF-0.00043189412074374312
aa(lp45
F0.000185655555981847
aF1.3191906856624971e-06
aa(lp46
F1.954081504901503e-06
aF-0.00024545354254434248
aa(lp47
F0.0001103772810914012
aF9.4074721947745598e-07
aa(lp48
F1.348151344080038e-06
aF-0.00015145998080196271
aa(lp49
F7.0290093098335877e-05
aF6.4874493985343979e-07
aa(lp50
F9.4251833348678749e-07
aF-9.9093625297536685e-05
aa(lp51
F4.7070283559551302e-05
aF4.5811405183132149e-07
aa(lp52
F6.7273162736650183e-07
aF-6.7712921880142257e-05
aa(lp53
F3.2735051221331752e-05
aF3.3029436910508232e-07
aa(lp54
F4.8956668350253352e-07
aF-4.7821311744269703e-05
aa(lp55
F2.343073829402437e-05
aF2.433922967154346e-07
aa(lp56
F3.591822441417758e-07
aF-3.4640987813745183e-05
aa(lp57
F1.7144026436751301e-05
aF1.7304273264946371e-07
aa(lp58
F2.7922929295566378e-07
aF-2.5595812727536069e-05
aa(lp59
F0.21862955189889119
aF0.79272736262889032
aa(lp60
F-0.57720760589351572
aF0.58570258028635358
aa(lp61
F-0.3353933639110741
aF-0.20356812375108629
aa(lp62
F-0.0031365427255707619
aF0.067276262352645805
aa(lp63
F-0.0095548725247747365
aF0.0051703324158616122
aa(lp64
F0.00026591400564173959
aF0.007847412018035807
aa(lp65
F-0.002038325597753507
aF1.0795584196218391e-05
aa(lp66
F4.00117901732896e-06
aF0.0020189152830149431
aa(lp67
F-0.00074497273566160541
aF-1.280861641017941e-05
aa(lp68
F-3.6822223863440091e-06
aF0.00085532327615761485
aa(lp69
F-0.00034464076114744852
aF-1.324759290578358e-06
aa(lp70
F-2.756818894666729e-06
aF0.00043189374003458958
aa(lp71
F-0.00018565519437618321
aF-1.3194507032946239e-06
aa(lp72
F-1.9546971722714669e-06
aF0.00024545373303581881
aa(lp73
F-0.00011037758022401801
aF-9.409969421678041e-07
aa(lp74
F-1.348519383306736e-06
aF0.00015145947970117511
aa(lp75
F-7.0290103416128288e-05
aF-6.4887224933196435e-07
aa(lp76
F-9.4278829549022296e-07
aF9.9093631416333981e-05
aa(lp77
F-4.7070396269497808e-05
aF-4.5823041646740159e-07
aa(lp78
F-6.7290164666418753e-07
aF6.7712891601659627e-05
aa(lp79
F-3.2734948911698758e-05
aF-3.3044095464224792e-07
aa(lp80
F-4.8987295710013561e-07
aF4.7821340695100138e-05
aa(lp81
F-2.3430808575225019e-05
aF-2.4343362666401271e-07
aa(lp82
F-3.5924372333531089e-07
aF3.4640982787903962e-05
aa(lp83
F-1.7144038998860369e-05
aF-1.73086337681809e-07
aa(lp84
F-2.7937663705899932e-07
aF2.5595835593259351e-05
aa(lp85
F-0.21862951064331909
aF-0.79272774010455782
aa(lp86
F-2.6834472003760128
aF-0.61342300038623043
aa(lp87
F-0.36549079886613489
aF0.1190751547848251
aa(lp88
F-0.01771375101684744
aF-0.023144475855184251
aa(lp89
F-0.01197255701423789
aF-0.00015704220263171659
aa(lp90
F-0.00024157098272241211
aF-0.00310330444658832
aa(lp91
F-0.0023507179757927812
aF0.00043752614218630319
aa(lp92
F-0.00013840606535652289
aF-0.00080290328713096906
aa(lp93
F-0.00089282265708988048
aF0.00017541825863255601
aa(lp94
F-6.770897241871617e-05
aF-0.00034297788289562239
aa(lp95
F-0.00041611344326173078
aF8.0807432014433789e-05
aa(lp96
F-3.4092589047675537e-05
aF-0.00017402265851846829
aa(lp97
F-0.00022469898755369229
aF4.4216651833419568e-05
aa(lp98
F-1.9571621300559719e-05
aF-9.912907612142838e-05
aa(lp99
F-0.00013383462906974849
aF2.6506595917511419e-05
aa(lp100
F-1.215674073900815e-05
aF-6.1254503388903647e-05
aa(lp101
F-8.5327018460277853e-05
aF1.696213079864804e-05
aa(lp102
F-7.9850418108953617e-06
aF-4.0113354560295112e-05
aa(lp103
F-5.7182942114416403e-05
aF1.1396415540001601e-05
aa(lp104
F-5.4714545105899199e-06
aF-2.7427402991556582e-05
aa(lp105
F-3.9789224089079027e-05
aF7.943954488710114e-06
aa(lp106
F-3.8713489982335149e-06
aF-1.9379227184964778e-05
aa(lp107
F-2.8492945168429499e-05
aF5.6960922352197003e-06
aa(lp108
F-2.807994993045708e-06
aF-1.4042484961037661e-05
aa(lp109
F-2.085968163160774e-05
aF4.1732095989515869e-06
aa(lp110
F-2.077555208871026e-06
aF-1.0374715954301789e-05
aa(lp111
F-1.872963543043725
aF2.01722232252241
aa(lp112
F2.6834475479073161
aF0.61342284737677011
aa(lp113
F0.36549064376102308
aF-0.1190755323811908
aa(lp114
F0.017713882309617748
aF0.02314436308306371
aa(lp115
F0.01197261958981289
aF0.00015705773789816829
aa(lp116
F0.0002415764739950163
aF0.0031033203622994401
aa(lp117
F0.0023507126024498639
aF-0.00043752016750175931
aa(lp118
F0.00013840452555426481
aF0.00080290328141643269
aa(lp119
F0.00089282363207251678
aF-0.00017541950241423869
aa(lp120
F6.7710651069821225e-05
aF0.00034297708961143801
aa(lp121
F0.00041611296184087317
aF-8.0807097641607921e-05
aa(lp122
F3.409270481577009e-05
aF0.00017402303922762089
aa(lp123
F0.0002246986259480285
aF-4.4216391815787468e-05
aa(lp124
F1.9572236967929679e-05
aF9.9128885629951892e-05
aa(lp125
F0.00013383492820236509
aF-2.6506346194821122e-05
aa(lp126
F1.215710877823495e-05
aF6.1255004489692115e-05
aa(lp127
F8.5327028778070481e-05
aF-1.696200348916957e-05
aa(lp128
F7.9853117728988514e-06
aF4.011334844149785e-05
aa(lp129
F5.7183054824362902e-05
aF-1.1396299175365521e-05
aa(lp130
F5.4716245298878216e-06
aF2.7427433270038991e-05
aa(lp131
F3.9789121779432168e-05
aF-7.9438079031729502e-06
aa(lp132
F3.8716552718311441e-06
aF1.937919823413433e-05
aa(lp133
F2.8493015449630172e-05
aF-5.6960509052711222e-06
aa(lp134
F2.8080564722391338e-06
aF1.4042489986878879e-05
aa(lp135
F2.085969419371675e-05
aF-4.1731659939183742e-06
aa(lp136
F2.0777025529744148e-06
aF1.0374693088578399e-05
aa(lp137
F1.8729635017881541
aF-2.0172219450467428
aasS'viewfile'
p138
g13
sba(imin_path.mod_minpath
minpath
p139
(dp140
g3
F12.32954099327573
sS'symdata'
p141
S'!!!======================================================================\n!!! generated configuration file\n!!!======================================================================\n0 !! action_type\n4 !! NOB\n2 !! dim\n1  !! sizekerT\n1 !! perm j=1\n2 !! perm j=2\n3 !! perm j=3\n4 !! perm j=4\n1.0D0 !! matrix (j,k)=(1,1)\n0.0D0 !! matrix (j,k)=(1,2)\n0.0D0 !! matrix (j,k)=(2,1)\n1.0D0 !! matrix (j,k)=(2,2)\n6  !! cyclic_order\n1 !! cyclic_perm j=1\n2 !! cyclic_perm j=2\n4 !! cyclic_perm j=3\n3 !! cyclic_perm j=4\n-0.5D0 !! cyclic_matrix (j,k)=(1,1)\n-0.8660254037844386D0  !!! imag= 5.8286708792820718e-16 !! cyclic_matrix (j,k)=(1,2)\n0.8660254037844386D0  !!! imag= -5.8286708792820718e-16 !! cyclic_matrix (j,k)=(2,1)\n-0.5D0 !! cyclic_matrix (j,k)=(2,2)\n1 !! cyclic_perm j=1\n2 !! cyclic_perm j=2\n3 !! cyclic_perm j=3\n4 !! cyclic_perm j=4\n-0.5D0 !! cyclic_matrix (j,k)=(1,1)\n0.8660254037844386D0  !!! imag= -5.8286708792820718e-16 !! cyclic_matrix (j,k)=(1,2)\n-0.8660254037844386D0  !!! imag= 5.8286708792820718e-16 !! cyclic_matrix (j,k)=(2,1)\n-0.5D0 !! cyclic_matrix (j,k)=(2,2)\n1 !! cyclic_perm j=1\n2 !! cyclic_perm j=2\n4 !! cyclic_perm j=3\n3 !! cyclic_perm j=4\n1.0D0 !! cyclic_matrix (j,k)=(1,1)\n0.0D0 !! cyclic_matrix (j,k)=(1,2)\n0.0D0 !! cyclic_matrix (j,k)=(2,1)\n1.0D0 !! cyclic_matrix (j,k)=(2,2)\n1 !! cyclic_perm j=1\n2 !! cyclic_perm j=2\n3 !! cyclic_perm j=3\n4 !! cyclic_perm j=4\n-0.5D0 !! cyclic_matrix (j,k)=(1,1)\n-0.8660254037844386D0  !!! imag= 5.8286708792820718e-16 !! cyclic_matrix (j,k)=(1,2)\n0.8660254037844386D0  !!! imag= -5.8286708792820718e-16 !! cyclic_matrix (j,k)=(2,1)\n-0.5D0 !! cyclic_matrix (j,k)=(2,2)\n1 !! cyclic_perm j=1\n2 !! cyclic_perm j=2\n4 !! cyclic_perm j=3\n3 !! cyclic_perm j=4\n-0.5D0 !! cyclic_matrix (j,k)=(1,1)\n0.8660254037844386D0  !!! imag= -5.8286708792820718e-16 !! cyclic_matrix (j,k)=(1,2)\n-0.8660254037844386D0  !!! imag= 5.8286708792820718e-16 !! cyclic_matrix (j,k)=(2,1)\n-0.5D0 !! cyclic_matrix (j,k)=(2,2)\n1 !! cyclic_perm j=1\n2 !! cyclic_perm j=2\n3 !! cyclic_perm j=3\n4 !! cyclic_perm j=4\n1.0D0 !! cyclic_matrix (j,k)=(1,1)\n0.0D0 !! cyclic_matrix (j,k)=(1,2)\n0.0D0 !! cyclic_matrix (j,k)=(2,1)\n1.0D0 !! cyclic_matrix (j,k)=(2,2)\n'
p142
sS'TODOLIST'
p143
(lp144
S'new()'
p145
aS'relax(200)'
p146
asS'NOB'
p147
I4
sS'withcoll'
p148
I0
sS'todo'
p149
g13
sS'omega'
p150
(lp151
F0.0
aF0.0
aF0.0
asS'massdata'
p152
S' 1.000000000000000000000000e+00 !! m(1)\n 1.000000000000000000000000e+00 !! m(2)\n 1.000000000000000000000000e+00 !! m(3)\n 1.000000000000000000000000e+00 !! m(4)\n'
p153
sS'dim'
p154
I2
sS'gammadata'
p155
S' 4 2 24  !! NOB,dim,steps\n 0.000000000000000E+00 0.000000000000000E+00 0.000000000000000E+00  !! omega\n 1.000000000000000  !! ALPHA\n 1.000000000000000  !! m( 1 )\n 1.000000000000000  !! m( 2 )\n 1.000000000000000  !! m( 3 )\n 1.000000000000000  !! m( 4 )\n 0.3154675732801997 -0.3266334001144995\n -0.8048693366811472 -8.967079058470839E-02\n 1.964627891102722E-02 -0.2039003536012605\n 5.444849712742006E-03 -9.607468393846325E-03\n 8.675354604575219E-03 -2.729689053728379E-02\n 5.524344631463673E-03 1.588245461224408E-04\n 2.616916466578051E-03 -6.714915863320486E-03\n 2.218282046636516E-03 5.342113016945024E-04\n 9.256093318052716E-04 -2.513230527292062E-03\n 9.987160123698449E-04 3.046284598857488E-04\n 4.094147169835353E-04 -1.217795826515881E-03\n 5.232843812319407E-04 1.645659992068134E-04\n 2.168174550015540E-04 -6.828010444300675E-04\n 3.067238710961449E-04 9.521285227240208E-05\n 1.291358602041100E-04 -4.185854696599433E-04\n 1.940111171336728E-04 5.932380313731188E-05\n 8.290174923022319E-05 -2.727572653306951E-04\n 1.294530602043390E-04 3.917241183701119E-05\n 5.600963829509309E-05 -1.858569116516499E-04\n 8.985237400702161E-05 2.700040283740157E-05\n 3.927463081337176E-05 -1.310191994702342E-04\n 6.426492850125122E-05 1.920149201156771E-05\n 2.831267677851947E-05 -9.484962404557850E-05\n 4.698265843453009E-05 1.397399671064091E-05\n 2.083525741088284E-05 -7.007999585960031E-05\n 0.1251390355835440 0.4365196325881318\n -0.3154675738423778 0.3266333985651277\n 0.8048693395520397 8.967079012677626E-02\n -1.964627895759496E-02 0.2039003540170920\n -5.444849722307354E-03 9.607468347967468E-03\n -8.675354621747136E-03 2.729689055630502E-02\n -5.524344635843503E-03 -1.588245545692396E-04\n -2.616916471778641E-03 6.714915867757409E-03\n -2.218282048263381E-03 -5.342113036287191E-04\n -9.256093333822879E-04 2.513230528971219E-03\n -9.987160130087158E-04 -3.046284603871290E-04\n -4.094147174230588E-04 1.217795827239333E-03\n -5.232843815226977E-04 -1.645659993417814E-04\n -2.168174551358138E-04 6.828010447963440E-04\n -3.067238712571620E-04 -9.521285232398755E-05\n -1.291358602709108E-04 4.185854698791395E-04\n -1.940111172351449E-04 -5.932380316793669E-05\n -8.290174927328727E-05 2.727572654735961E-04\n -1.294530602721667E-04 -3.917241185743929E-05\n -5.600963832445849E-05 1.858569117491500E-04\n -8.985237405413626E-05 -2.700040285158359E-05\n -3.927463083408284E-05 1.310191995390210E-04\n -6.426492853494822E-05 -1.920149202170804E-05\n -2.831267679351181E-05 9.484962409536316E-05\n -4.698265845920480E-05 -1.397399671797592E-05\n -2.083525745054209E-05 7.007999590858457E-05\n -0.1251390339606591 -0.4365196323003060\n 1.124340968671790 -2.487890909781783\n -3.156134763037843E-02 -0.3643254546758650\n 2.774278965735733E-02 -4.750111408526922E-03\n -1.501944822666246E-03 -1.334484942457351E-02\n 3.257267301260247E-03 -5.080378516431616E-04\n -3.532849275056371E-04 -2.834338335561140E-03\n 9.379056751723513E-04 -1.271560004317274E-04\n -1.280392007038805E-04 -1.015119605892317E-03\n 3.894171330989515E-04 -4.974261872505575E-05\n -5.899504224347180E-05 -4.704550341536259E-04\n 1.964352249755677E-04 -2.461823312822214E-05\n -3.162805489516016E-05 -2.535727916941318E-04\n 1.117625347742280E-04 -1.391801827324568E-05\n -1.874945938643881E-05 -1.508060693117233E-04\n 6.898965773366548E-05 -8.568260609425130E-06\n -1.192108129217993E-05 -9.606616017366048E-05\n 4.514840665781409E-05 -5.598924058514490E-06\n -7.975174239218666E-06 -6.434506938516465E-05\n 3.085634875277937E-05 -3.822921386186645E-06\n -5.542692652138210E-06 -4.475573010582676E-05\n 2.179504020336886E-05 -2.698604766605698E-06\n -3.965707275439476E-06 -3.204119553588871E-05\n 1.578908493126991E-05 -1.954287947530351E-06\n -2.900977120079418E-06 -2.345176086118749E-05\n 1.166469391590107E-05 -1.443801760058795E-06\n -1.592406247002392 -2.217653296564089\n -1.124340968109609 2.487890911331154\n 3.156134475948558E-02 0.3643254551337973\n -2.774278961078946E-02 4.750110992695400E-03\n 1.501944832231428E-03 1.334484947045236E-02\n -3.257267284088344E-03 5.080378326219326E-04\n 3.532849318855780E-04 2.834338344007953E-03\n -9.379056699717059E-04 1.271559959947766E-04\n 1.280392023307458E-04 1.015119607826548E-03\n -3.894171315218520E-04 4.974261704590588E-05\n 5.899504288234964E-05 4.704550346550027E-04\n -1.964352245360512E-04 2.461823240478694E-05\n 3.162805518591022E-05 2.535727918290993E-04\n -1.117625346399691E-04 1.391801790698310E-05\n 1.874945954745237E-05 1.508060693633079E-04\n -6.898965766686475E-05 8.568260390229374E-06\n 1.192108139365193E-05 9.606616020428355E-05\n -4.514840661474991E-05 5.598923915613608E-06\n 7.975174307046353E-06 6.434506940559276E-05\n -3.085634872341224E-05 3.822921288684777E-06\n 5.542692699251998E-06 4.475573012000964E-05\n -2.179504018265778E-05 2.698604697818924E-06\n 3.965707309136479E-06 3.204119554602904E-05\n -1.578908491627930E-05 1.954287897745684E-06\n 2.900977144726369E-06 2.345176086852245E-05\n -1.166469387624139E-05 1.443801711071939E-06\n 1.592406245379508 2.217653296276266\n'
p156
sS'log'
p157
g13
sS'SPMETHOD'
p158
I1
sg23
F0.0002281847232786847
sS'masses'
p159
(lp160
F1.0
aF1.0
aF1.0
aF1.0
asS'symfilename'
p161
g13
sS'invalid'
p162
I0
sS'steps'
p163
I24
sS'ALPHA'
p164
F1.0
sS'confdata'
p165
S'!! CONFIG STRING\n&CONFIG\nCOMMAND=howsol\nSPMETHOD=3\nALG=0\nsteps=24\nALPHA=1.000000000000000000000000e+00\n/\n0.000000000000000000000000e+00 !! omega(1)\n0.000000000000000000000000e+00 !! omega(2)\n0.000000000000000000000000e+00 !! omega(3)\n'
p166
sS'gamma'
p167
(lp168
(lp169
F0.3154675732801997
aF-0.32663340011449948
aa(lp170
F-0.80486933668114724
aF-0.089670790584708393
aa(lp171
F0.019646278911027219
aF-0.20390035360126049
aa(lp172
F0.0054448497127420059
aF-0.0096074683938463246
aa(lp173
F0.0086753546045752195
aF-0.027296890537283791
aa(lp174
F0.0055243446314636726
aF0.00015882454612244079
aa(lp175
F0.0026169164665780509
aF-0.0067149158633204864
aa(lp176
F0.0022182820466365161
aF0.00053421130169450243
aa(lp177
F0.00092560933180527161
aF-0.002513230527292062
aa(lp178
F0.00099871601236984492
aF0.00030462845988574882
aa(lp179
F0.00040941471698353529
aF-0.0012177958265158809
aa(lp180
F0.00052328438123194071
aF0.00016456599920681341
aa(lp181
F0.00021681745500155399
aF-0.00068280104443006751
aa(lp182
F0.00030672387109614488
aF9.5212852272402075e-05
aa(lp183
F0.00012913586020411001
aF-0.00041858546965994328
aa(lp184
F0.00019401111713367281
aF5.9323803137311878e-05
aa(lp185
F8.2901749230223189e-05
aF-0.00027275726533069512
aa(lp186
F0.00012945306020433899
aF3.9172411837011187e-05
aa(lp187
F5.6009638295093089e-05
aF-0.0001858569116516499
aa(lp188
F8.9852374007021608e-05
aF2.7000402837401571e-05
aa(lp189
F3.9274630813371757e-05
aF-0.00013101919947023421
aa(lp190
F6.426492850125122e-05
aF1.9201492011567709e-05
aa(lp191
F2.8312676778519469e-05
aF-9.4849624045578504e-05
aa(lp192
F4.6982658434530089e-05
aF1.397399671064091e-05
aa(lp193
F2.0835257410882841e-05
aF-7.0079995859600314e-05
aa(lp194
F0.125139035583544
aF0.43651963258813181
aa(lp195
F-0.31546757384237778
aF0.32663339856512769
aa(lp196
F0.80486933955203965
aF0.089670790126776256
aa(lp197
F-0.019646278957594961
aF0.203900354017092
aa(lp198
F-0.0054448497223073544
aF0.0096074683479674683
aa(lp199
F-0.0086753546217471361
aF0.02729689055630502
aa(lp200
F-0.0055243446358435033
aF-0.00015882455456923961
aa(lp201
F-0.0026169164717786408
aF0.0067149158677574086
aa(lp202
F-0.0022182820482633809
aF-0.0005342113036287191
aa(lp203
F-0.0009256093333822879
aF0.0025132305289712188
aa(lp204
F-0.00099871601300871582
aF-0.00030462846038712901
aa(lp205
F-0.00040941471742305882
aF0.0012177958272393331
aa(lp206
F-0.00052328438152269771
aF-0.0001645659993417814
aa(lp207
F-0.00021681745513581381
aF0.00068280104479634396
aa(lp208
F-0.00030672387125716202
aF-9.5212852323987547e-05
aa(lp209
F-0.0001291358602709108
aF0.00041858546987913952
aa(lp210
F-0.00019401111723514489
aF-5.9323803167936687e-05
aa(lp211
F-8.2901749273287266e-05
aF0.00027275726547359611
aa(lp212
F-0.0001294530602721667
aF-3.917241185743929e-05
aa(lp213
F-5.6009638324458488e-05
aF0.00018585691174915001
aa(lp214
F-8.9852374054136264e-05
aF-2.700040285158359e-05
aa(lp215
F-3.9274630834082837e-05
aF0.00013101919953902101
aa(lp216
F-6.4264928534948224e-05
aF-1.9201492021708039e-05
aa(lp217
F-2.831267679351181e-05
aF9.4849624095363157e-05
aa(lp218
F-4.6982658459204803e-05
aF-1.397399671797592e-05
aa(lp219
F-2.0835257450542089e-05
aF7.0079995908584568e-05
aa(lp220
F-0.12513903396065909
aF-0.43651963230030599
aa(lp221
F1.12434096867179
aF-2.487890909781783
aa(lp222
F-0.031561347630378427
aF-0.36432545467586502
aa(lp223
F0.027742789657357329
aF-0.0047501114085269219
aa(lp224
F-0.001501944822666246
aF-0.013344849424573511
aa(lp225
F0.0032572673012602471
aF-0.00050803785164316162
aa(lp226
F-0.00035328492750563711
aF-0.0028343383355611401
aa(lp227
F0.00093790567517235135
aF-0.00012715600043172739
aa(lp228
F-0.0001280392007038805
aF-0.0010151196058923171
aa(lp229
F0.00038941713309895149
aF-4.9742618725055747e-05
aa(lp230
F-5.8995042243471803e-05
aF-0.00047045503415362589
aa(lp231
F0.0001964352249755677
aF-2.4618233128222141e-05
aa(lp232
F-3.1628054895160157e-05
aF-0.00025357279169413178
aa(lp233
F0.000111762534774228
aF-1.391801827324568e-05
aa(lp234
F-1.8749459386438811e-05
aF-0.00015080606931172329
aa(lp235
F6.8989657733665478e-05
aF-8.5682606094251296e-06
aa(lp236
F-1.1921081292179931e-05
aF-9.6066160173660479e-05
aa(lp237
F4.5148406657814087e-05
aF-5.59892405851449e-06
aa(lp238
F-7.9751742392186655e-06
aF-6.4345069385164655e-05
aa(lp239
F3.0856348752779372e-05
aF-3.8229213861866451e-06
aa(lp240
F-5.5426926521382099e-06
aF-4.4755730105826763e-05
aa(lp241
F2.179504020336886e-05
aF-2.698604766605698e-06
aa(lp242
F-3.9657072754394757e-06
aF-3.204119553588871e-05
aa(lp243
F1.578908493126991e-05
aF-1.9542879475303511e-06
aa(lp244
F-2.9009771200794181e-06
aF-2.345176086118749e-05
aa(lp245
F1.1664693915901071e-05
aF-1.443801760058795e-06
aa(lp246
F-1.5924062470023921
aF-2.2176532965640892
aa(lp247
F-1.124340968109609
aF2.4878909113311538
aa(lp248
F0.031561344759485577
aF0.36432545513379733
aa(lp249
F-0.027742789610789461
aF0.0047501109926953999
aa(lp250
F0.0015019448322314279
aF0.01334484947045236
aa(lp251
F-0.0032572672840883439
aF0.00050803783262193258
aa(lp252
F0.00035328493188557802
aF0.0028343383440079528
aa(lp253
F-0.00093790566997170588
aF0.00012715599599477659
aa(lp254
F0.00012803920233074581
aF0.0010151196078265481
aa(lp255
F-0.00038941713152185198
aF4.9742617045905879e-05
aa(lp256
F5.8995042882349642e-05
aF0.00047045503465500271
aa(lp257
F-0.0001964352245360512
aF2.461823240478694e-05
aa(lp258
F3.162805518591022e-05
aF0.00025357279182909928
aa(lp259
F-0.0001117625346399691
aF1.3918017906983099e-05
aa(lp260
F1.8749459547452371e-05
aF0.0001508060693633079
aa(lp261
F-6.8989657666864747e-05
aF8.5682603902293743e-06
aa(lp262
F1.192108139365193e-05
aF9.6066160204283553e-05
aa(lp263
F-4.5148406614749909e-05
aF5.5989239156136079e-06
aa(lp264
F7.9751743070463534e-06
aF6.4345069405592759e-05
aa(lp265
F-3.0856348723412239e-05
aF3.8229212886847766e-06
aa(lp266
F5.5426926992519984e-06
aF4.4755730120009638e-05
aa(lp267
F-2.179504018265778e-05
aF2.698604697818924e-06
aa(lp268
F3.9657073091364792e-06
aF3.2041195546029043e-05
aa(lp269
F-1.5789084916279301e-05
aF1.9542878977456839e-06
aa(lp270
F2.9009771447263688e-06
aF2.345176086852245e-05
aa(lp271
F-1.1664693876241391e-05
aF1.4438017110719389e-06
aa(lp272
F1.592406245379508
aF2.2176532962762661
aasS'viewfile'
p273
g13
sba(imin_path.mod_minpath
minpath
p274
(dp275
g3
F12.70888318195251
sS'symdata'
p276
S'!!!======================================================================\n!!! generated configuration file\n!!!======================================================================\n0 !! action_type\n4 !! NOB\n2 !! dim\n1  !! sizekerT\n1 !! perm j=1\n2 !! perm j=2\n3 !! perm j=3\n4 !! perm j=4\n1.0D0 !! matrix (j,k)=(1,1)\n0.0D0 !! matrix (j,k)=(1,2)\n0.0D0 !! matrix (j,k)=(2,1)\n1.0D0 !! matrix (j,k)=(2,2)\n6  !! cyclic_order\n1 !! cyclic_perm j=1\n2 !! cyclic_perm j=2\n4 !! cyclic_perm j=3\n3 !! cyclic_perm j=4\n-0.5D0 !! cyclic_matrix (j,k)=(1,1)\n-0.8660254037844386D0  !!! imag= 5.8286708792820718e-16 !! cyclic_matrix (j,k)=(1,2)\n0.8660254037844386D0  !!! imag= -5.8286708792820718e-16 !! cyclic_matrix (j,k)=(2,1)\n-0.5D0 !! cyclic_matrix (j,k)=(2,2)\n1 !! cyclic_perm j=1\n2 !! cyclic_perm j=2\n3 !! cyclic_perm j=3\n4 !! cyclic_perm j=4\n-0.5D0 !! cyclic_matrix (j,k)=(1,1)\n0.8660254037844386D0  !!! imag= -5.8286708792820718e-16 !! cyclic_matrix (j,k)=(1,2)\n-0.8660254037844386D0  !!! imag= 5.8286708792820718e-16 !! cyclic_matrix (j,k)=(2,1)\n-0.5D0 !! cyclic_matrix (j,k)=(2,2)\n1 !! cyclic_perm j=1\n2 !! cyclic_perm j=2\n4 !! cyclic_perm j=3\n3 !! cyclic_perm j=4\n1.0D0 !! cyclic_matrix (j,k)=(1,1)\n0.0D0 !! cyclic_matrix (j,k)=(1,2)\n0.0D0 !! cyclic_matrix (j,k)=(2,1)\n1.0D0 !! cyclic_matrix (j,k)=(2,2)\n1 !! cyclic_perm j=1\n2 !! cyclic_perm j=2\n3 !! cyclic_perm j=3\n4 !! cyclic_perm j=4\n-0.5D0 !! cyclic_matrix (j,k)=(1,1)\n-0.8660254037844386D0  !!! imag= 5.8286708792820718e-16 !! cyclic_matrix (j,k)=(1,2)\n0.8660254037844386D0  !!! imag= -5.8286708792820718e-16 !! cyclic_matrix (j,k)=(2,1)\n-0.5D0 !! cyclic_matrix (j,k)=(2,2)\n1 !! cyclic_perm j=1\n2 !! cyclic_perm j=2\n4 !! cyclic_perm j=3\n3 !! cyclic_perm j=4\n-0.5D0 !! cyclic_matrix (j,k)=(1,1)\n0.8660254037844386D0  !!! imag= -5.8286708792820718e-16 !! cyclic_matrix (j,k)=(1,2)\n-0.8660254037844386D0  !!! imag= 5.8286708792820718e-16 !! cyclic_matrix (j,k)=(2,1)\n-0.5D0 !! cyclic_matrix (j,k)=(2,2)\n1 !! cyclic_perm j=1\n2 !! cyclic_perm j=2\n3 !! cyclic_perm j=3\n4 !! cyclic_perm j=4\n1.0D0 !! cyclic_matrix (j,k)=(1,1)\n0.0D0 !! cyclic_matrix (j,k)=(1,2)\n0.0D0 !! cyclic_matrix (j,k)=(2,1)\n1.0D0 !! cyclic_matrix (j,k)=(2,2)\n'
p277
sS'TODOLIST'
p278
(lp279
S'new()'
p280
aS'relax(200)'
p281
asS'NOB'
p282
I4
sS'withcoll'
p283
I0
sS'todo'
p284
g13
sS'omega'
p285
(lp286
F0.0
aF0.0
aF0.0
asS'massdata'
p287
S' 1.000000000000000000000000e+00 !! m(1)\n 1.000000000000000000000000e+00 !! m(2)\n 1.000000000000000000000000e+00 !! m(3)\n 1.000000000000000000000000e+00 !! m(4)\n'
p288
sS'dim'
p289
I2
sS'gammadata'
p290
S' 4 2 24  !! NOB,dim,steps\n 0.000000000000000E+00 0.000000000000000E+00 0.000000000000000E+00  !! omega\n 1.000000000000000  !! ALPHA\n 1.000000000000000  !! m( 1 )\n 1.000000000000000  !! m( 2 )\n 1.000000000000000  !! m( 3 )\n 1.000000000000000  !! m( 4 )\n 1.656042112268096 0.8048157411153499\n 5.305983190595942E-02 0.7001314178541387\n 2.300330622879687E-02 -1.098184896076870E-02\n 2.251994525386242E-03 6.541902761832902E-02\n 9.891736723975711E-03 -3.243197260061226E-03\n -1.302169807130497E-04 2.064569737858396E-02\n 6.161878499807275E-03 -1.225437511432288E-03\n -3.515154404188821E-04 8.473652391454919E-03\n 3.800848107784749E-03 -4.870263575361689E-04\n -2.809848643172547E-04 3.998599300896143E-03\n 2.389459325978610E-03 -1.902243660319696E-04\n -1.903313304978220E-04 2.072075031988296E-03\n 1.540634360678909E-03 -6.724077343304644E-05\n -1.222653426710737E-04 1.154487413984266E-03\n 1.019572399798435E-03 -1.682381362701386E-05\n -7.707469858038093E-05 6.835384427860951E-04\n 6.919187551638201E-04 2.620202933933599E-06\n -4.838298364209749E-05 4.266108513491706E-04\n 4.807050045968764E-04 8.918255993897208E-06\n -3.047894742619090E-05 2.787936671815438E-04\n 3.411434029855255E-04 9.853704717396189E-06\n -1.935659848295882E-05 1.895705657692271E-04\n 2.466522024065188E-04 8.824944704694838E-06\n -1.243215574753525E-05 1.332579993559421E-04\n 1.812015085084512E-04 7.288013773919765E-06\n -1.525011933305541 1.031766668403337\n -0.4685534289008189 -0.2250220678860932\n -1.660561977222086E-02 -0.2403462694230925\n -3.948670050302883E-02 2.974955299818394E-03\n -1.301976599867409E-04 -3.649429905276669E-03\n -4.897669756846149E-03 4.896878665895665E-04\n -6.751345982256105E-05 -1.172812735905804E-03\n -1.452643345824005E-03 1.512190204475128E-04\n -3.371503832678632E-05 -4.679450893646832E-04\n -5.981173476659607E-04 6.255543338379299E-05\n -1.839680404723543E-05 -2.256889810468184E-04\n -2.978384018066157E-04 3.086930715854967E-05\n -1.081820357407698E-05 -1.234718225064304E-04\n -1.676278566521000E-04 1.714691530555791E-05\n -6.747384086017855E-06 -7.379459248529896E-05\n -1.026439373076661E-04 1.036433681495278E-05\n -4.410420488117246E-06 -4.704972918063294E-05\n -6.678680094282519E-05 6.668806666451340E-06\n -2.993957330696558E-06 -3.149180200160469E-05\n -4.545918587312014E-05 4.498478921364721E-06\n -2.095586236624918E-06 -2.187674582638469E-05\n -3.201572789612167E-05 3.145812895594124E-06\n -1.503294869515011E-06 -1.563876343546166E-05\n -2.313845300348349E-05 2.260407407983674E-06\n -1.097649768431151E-06 -1.141473187006841E-05\n -1.707639570975271E-05 1.661224535214230E-06\n 0.4291515416518725 -0.2932681385153675\n -2.292161467475060 -1.036875038558986\n -0.4975909550242101 -0.1946788036663447\n 9.576666454467420E-03 4.524182277345551E-02\n -1.629114933551450E-02 -3.149790758477444E-02\n -2.687147918195715E-03 1.418388991776257E-02\n -5.563979494455293E-04 -1.024551227145397E-02\n -2.649112185989864E-03 5.554184983228787E-03\n 9.642056796362874E-04 -4.216900367179137E-03\n -1.823445472907248E-03 2.467515141511334E-03\n 8.917206830391378E-04 -1.960426583648058E-03\n -1.193414202634654E-03 1.191539724162048E-03\n 6.482809694306948E-04 -9.896561510984124E-04\n -7.808731221868696E-04 6.135087755845259E-04\n 4.468406539999935E-04 -5.335139927056427E-04\n -5.181586155409827E-04 3.339642006105190E-04\n 3.053683282386926E-04 -3.047377238235976E-04\n -3.503984115227621E-04 1.915048332428886E-04\n 2.101978558232403E-04 -1.836009761899951E-04\n -2.418113611427630E-04 1.154771680562192E-04\n 1.466549673035727E-04 -1.162418453906694E-04\n -1.702311184338147E-04 7.309252744748876E-05\n 1.039302420812161E-04 -7.700083312294241E-05\n -1.220632827929910E-04 4.841195050258977E-05\n 7.479526405524805E-05 -5.306534091279206E-05\n -8.897203144085739E-05 3.337778153013511E-05\n -0.9481804660259116 0.7281340112417545\n 1.104672784107779 0.4570813653297299\n 0.4611367428904716 -0.2651063447646989\n 6.906727819764757E-03 -3.723492911250509E-02\n 1.416935247011500E-02 -3.027169012827802E-02\n -2.306919048933861E-03 -1.143038052429085E-02\n 7.541283899811426E-04 -9.227372371224188E-03\n -2.060122967993426E-03 -4.479966492244025E-03\n -5.789752008906156E-04 -3.788806934911099E-03\n -1.379285287211540E-03 -2.043044217358986E-03\n -5.923390146746893E-04 -1.812483736201256E-03\n -8.982067215373406E-04 -1.032184665288625E-03\n -4.471314353588010E-04 -9.589470583834529E-04\n -5.921333818399432E-04 -5.634149174570391E-04\n -3.178279272429037E-04 -5.471788287933314E-04\n -3.987698469497870E-04 -3.275047237984593E-04\n -2.238832091701953E-04 -3.317509897818628E-04\n -2.747335426982606E-04 -2.007938428432742E-04\n -1.588209148504463E-04 -2.115180731575707E-04\n -1.934344575810210E-04 -1.288939029714812E-04\n -1.140804336407595E-04 -1.406750759644863E-04\n -1.388965566555891E-04 -8.609204506049295E-05\n -8.307034872874247E-05 -9.693096921082386E-05\n -1.014504666100439E-04 -5.949730261527002E-05\n -6.126545853928252E-05 -6.877792657308162E-05\n -7.515308135784288E-05 -4.232701983926911E-05\n 2.044040857679581 -1.466632541129727\n'
p291
sS'log'
p292
g13
sS'SPMETHOD'
p293
I1
sg23
F0.00025951285474961429
sS'masses'
p294
(lp295
F1.0
aF1.0
aF1.0
aF1.0
asS'symfilename'
p296
g13
sS'invalid'
p297
I0
sS'steps'
p298
I24
sS'ALPHA'
p299
F1.0
sS'confdata'
p300
S'!! CONFIG STRING\n&CONFIG\nCOMMAND=howsol\nSPMETHOD=3\nALG=0\nsteps=24\nALPHA=1.000000000000000000000000e+00\n/\n0.000000000000000000000000e+00 !! omega(1)\n0.000000000000000000000000e+00 !! omega(2)\n0.000000000000000000000000e+00 !! omega(3)\n'
p301
sS'gamma'
p302
(lp303
(lp304
F1.6560421122680959
aF0.80481574111534993
aa(lp305
F0.05305983190595942
aF0.70013141785413868
aa(lp306
F0.023003306228796871
aF-0.0109818489607687
aa(lp307
F0.0022519945253862421
aF0.065419027618329018
aa(lp308
F0.0098917367239757109
aF-0.0032431972600612262
aa(lp309
F-0.0001302169807130497
aF0.02064569737858396
aa(lp310
F0.0061618784998072754
aF-0.001225437511432288
aa(lp311
F-0.00035151544041888208
aF0.0084736523914549187
aa(lp312
F0.0038008481077847489
aF-0.00048702635753616891
aa(lp313
F-0.00028098486431725472
aF0.0039985993008961433
aa(lp314
F0.00238945932597861
aF-0.00019022436603196961
aa(lp315
F-0.000190331330497822
aF0.0020720750319882962
aa(lp316
F0.001540634360678909
aF-6.7240773433046436e-05
aa(lp317
F-0.00012226534267107371
aF0.001154487413984266
aa(lp318
F0.0010195723997984351
aF-1.6823813627013861e-05
aa(lp319
F-7.7074698580380935e-05
aF0.00068353844278609514
aa(lp320
F0.00069191875516382007
aF2.6202029339335992e-06
aa(lp321
F-4.8382983642097487e-05
aF0.00042661085134917059
aa(lp322
F0.00048070500459687637
aF8.9182559938972075e-06
aa(lp323
F-3.0478947426190901e-05
aF0.00027879366718154379
aa(lp324
F0.00034114340298552551
aF9.8537047173961889e-06
aa(lp325
F-1.9356598482958821e-05
aF0.00018957056576922711
aa(lp326
F0.00024665220240651877
aF8.8249447046948384e-06
aa(lp327
F-1.2432155747535249e-05
aF0.00013325799935594209
aa(lp328
F0.0001812015085084512
aF7.2880137739197654e-06
aa(lp329
F-1.525011933305541
aF1.0317666684033371
aa(lp330
F-0.46855342890081891
aF-0.22502206788609319
aa(lp331
F-0.016605619772220859
aF-0.24034626942309251
aa(lp332
F-0.039486700503028833
aF0.0029749552998183941
aa(lp333
F-0.0001301976599867409
aF-0.0036494299052766692
aa(lp334
F-0.0048976697568461486
aF0.00048968786658956653
aa(lp335
F-6.7513459822561052e-05
aF-0.001172812735905804
aa(lp336
F-0.0014526433458240051
aF0.00015121902044751281
aa(lp337
F-3.3715038326786323e-05
aF-0.00046794508936468318
aa(lp338
F-0.0005981173476659607
aF6.2555433383792991e-05
aa(lp339
F-1.839680404723543e-05
aF-0.00022568898104681839
aa(lp340
F-0.00029783840180661568
aF3.0869307158549672e-05
aa(lp341
F-1.0818203574076981e-05
aF-0.00012347182250643039
aa(lp342
F-0.0001676278566521
aF1.7146915305557911e-05
aa(lp343
F-6.7473840860178547e-06
aF-7.379459248529896e-05
aa(lp344
F-0.00010264393730766611
aF1.0364336814952781e-05
aa(lp345
F-4.4104204881172462e-06
aF-4.7049729180632938e-05
aa(lp346
F-6.6786800942825186e-05
aF6.6688066664513396e-06
aa(lp347
F-2.993957330696558e-06
aF-3.1491802001604688e-05
aa(lp348
F-4.5459185873120138e-05
aF4.4984789213647208e-06
aa(lp349
F-2.095586236624918e-06
aF-2.1876745826384689e-05
aa(lp350
F-3.2015727896121671e-05
aF3.145812895594124e-06
aa(lp351
F-1.5032948695150111e-06
aF-1.563876343546166e-05
aa(lp352
F-2.3138453003483491e-05
aF2.260407407983674e-06
aa(lp353
F-1.097649768431151e-06
aF-1.1414731870068411e-05
aa(lp354
F-1.7076395709752709e-05
aF1.6612245352142299e-06
aa(lp355
F0.42915154165187253
aF-0.29326813851536748
aa(lp356
F-2.2921614674750601
aF-1.036875038558986
aa(lp357
F-0.49759095502421008
aF-0.19467880366634471
aa(lp358
F0.0095766664544674196
aF0.045241822773455509
aa(lp359
F-0.016291149335514499
aF-0.031497907584774443
aa(lp360
F-0.0026871479181957152
aF0.014183889917762571
aa(lp361
F-0.00055639794944552928
aF-0.01024551227145397
aa(lp362
F-0.002649112185989864
aF0.0055541849832287868
aa(lp363
F0.00096420567963628745
aF-0.0042169003671791369
aa(lp364
F-0.001823445472907248
aF0.0024675151415113339
aa(lp365
F0.00089172068303913776
aF-0.0019604265836480582
aa(lp366
F-0.0011934142026346539
aF0.001191539724162048
aa(lp367
F0.00064828096943069478
aF-0.00098965615109841243
aa(lp368
F-0.00078087312218686963
aF0.00061350877558452588
aa(lp369
F0.00044684065399999348
aF-0.00053351399270564273
aa(lp370
F-0.00051815861554098267
aF0.00033396420061051899
aa(lp371
F0.00030536832823869261
aF-0.0003047377238235976
aa(lp372
F-0.00035039841152276208
aF0.00019150483324288859
aa(lp373
F0.00021019785582324031
aF-0.00018360097618999509
aa(lp374
F-0.000241811361142763
aF0.0001154771680562192
aa(lp375
F0.00014665496730357271
aF-0.0001162418453906694
aa(lp376
F-0.00017023111843381469
aF7.3092527447488759e-05
aa(lp377
F0.00010393024208121611
aF-7.7000833122942407e-05
aa(lp378
F-0.000122063282792991
aF4.8411950502589771e-05
aa(lp379
F7.4795264055248049e-05
aF-5.3065340912792063e-05
aa(lp380
F-8.8972031440857392e-05
aF3.3377781530135112e-05
aa(lp381
F-0.94818046602591155
aF0.72813401124175448
aa(lp382
F1.104672784107779
aF0.45708136532972993
aa(lp383
F0.46113674289047157
aF-0.26510634476469891
aa(lp384
F0.0069067278197647566
aF-0.037234929112505089
aa(lp385
F0.014169352470115
aF-0.030271690128278021
aa(lp386
F-0.002306919048933861
aF-0.011430380524290851
aa(lp387
F0.00075412838998114261
aF-0.0092273723712241879
aa(lp388
F-0.002060122967993426
aF-0.0044799664922440252
aa(lp389
F-0.00057897520089061558
aF-0.0037888069349110991
aa(lp390
F-0.00137928528721154
aF-0.0020430442173589862
aa(lp391
F-0.0005923390146746893
aF-0.0018124837362012559
aa(lp392
F-0.00089820672153734064
aF-0.001032184665288625
aa(lp393
F-0.00044713143535880101
aF-0.00095894705838345294
aa(lp394
F-0.00059213338183994324
aF-0.00056341491745703909
aa(lp395
F-0.00031782792724290368
aF-0.00054717882879333143
aa(lp396
F-0.00039876984694978699
aF-0.00032750472379845932
aa(lp397
F-0.0002238832091701953
aF-0.00033175098978186282
aa(lp398
F-0.00027473354269826061
aF-0.0002007938428432742
aa(lp399
F-0.00015882091485044629
aF-0.00021151807315757069
aa(lp400
F-0.00019343445758102101
aF-0.00012889390297148121
aa(lp401
F-0.0001140804336407595
aF-0.00014067507596448629
aa(lp402
F-0.00013889655665558909
aF-8.609204506049295e-05
aa(lp403
F-8.3070348728742473e-05
aF-9.6930969210823857e-05
aa(lp404
F-0.0001014504666100439
aF-5.9497302615270017e-05
aa(lp405
F-6.1265458539282516e-05
aF-6.8777926573081617e-05
aa(lp406
F-7.5153081357842884e-05
aF-4.2327019839269113e-05
aa(lp407
F2.044040857679581
aF-1.466632541129727
aasS'viewfile'
p408
g13
sba(imin_path.mod_minpath
minpath
p409
(dp410
g3
F13.549796691199701
sS'symdata'
p411
S'!!!======================================================================\n!!! generated configuration file\n!!!======================================================================\n0 !! action_type\n4 !! NOB\n2 !! dim\n1  !! sizekerT\n1 !! perm j=1\n2 !! perm j=2\n3 !! perm j=3\n4 !! perm j=4\n1.0D0 !! matrix (j,k)=(1,1)\n0.0D0 !! matrix (j,k)=(1,2)\n0.0D0 !! matrix (j,k)=(2,1)\n1.0D0 !! matrix (j,k)=(2,2)\n6  !! cyclic_order\n1 !! cyclic_perm j=1\n2 !! cyclic_perm j=2\n4 !! cyclic_perm j=3\n3 !! cyclic_perm j=4\n-0.5D0 !! cyclic_matrix (j,k)=(1,1)\n-0.8660254037844386D0  !!! imag= 5.8286708792820718e-16 !! cyclic_matrix (j,k)=(1,2)\n0.8660254037844386D0  !!! imag= -5.8286708792820718e-16 !! cyclic_matrix (j,k)=(2,1)\n-0.5D0 !! cyclic_matrix (j,k)=(2,2)\n1 !! cyclic_perm j=1\n2 !! cyclic_perm j=2\n3 !! cyclic_perm j=3\n4 !! cyclic_perm j=4\n-0.5D0 !! cyclic_matrix (j,k)=(1,1)\n0.8660254037844386D0  !!! imag= -5.8286708792820718e-16 !! cyclic_matrix (j,k)=(1,2)\n-0.8660254037844386D0  !!! imag= 5.8286708792820718e-16 !! cyclic_matrix (j,k)=(2,1)\n-0.5D0 !! cyclic_matrix (j,k)=(2,2)\n1 !! cyclic_perm j=1\n2 !! cyclic_perm j=2\n4 !! cyclic_perm j=3\n3 !! cyclic_perm j=4\n1.0D0 !! cyclic_matrix (j,k)=(1,1)\n0.0D0 !! cyclic_matrix (j,k)=(1,2)\n0.0D0 !! cyclic_matrix (j,k)=(2,1)\n1.0D0 !! cyclic_matrix (j,k)=(2,2)\n1 !! cyclic_perm j=1\n2 !! cyclic_perm j=2\n3 !! cyclic_perm j=3\n4 !! cyclic_perm j=4\n-0.5D0 !! cyclic_matrix (j,k)=(1,1)\n-0.8660254037844386D0  !!! imag= 5.8286708792820718e-16 !! cyclic_matrix (j,k)=(1,2)\n0.8660254037844386D0  !!! imag= -5.8286708792820718e-16 !! cyclic_matrix (j,k)=(2,1)\n-0.5D0 !! cyclic_matrix (j,k)=(2,2)\n1 !! cyclic_perm j=1\n2 !! cyclic_perm j=2\n4 !! cyclic_perm j=3\n3 !! cyclic_perm j=4\n-0.5D0 !! cyclic_matrix (j,k)=(1,1)\n0.8660254037844386D0  !!! imag= -5.8286708792820718e-16 !! cyclic_matrix (j,k)=(1,2)\n-0.8660254037844386D0  !!! imag= 5.8286708792820718e-16 !! cyclic_matrix (j,k)=(2,1)\n-0.5D0 !! cyclic_matrix (j,k)=(2,2)\n1 !! cyclic_perm j=1\n2 !! cyclic_perm j=2\n3 !! cyclic_perm j=3\n4 !! cyclic_perm j=4\n1.0D0 !! cyclic_matrix (j,k)=(1,1)\n0.0D0 !! cyclic_matrix (j,k)=(1,2)\n0.0D0 !! cyclic_matrix (j,k)=(2,1)\n1.0D0 !! cyclic_matrix (j,k)=(2,2)\n'
p412
sS'TODOLIST'
p413
(lp414
S'new()'
p415
aS'relax(200)'
p416
asS'NOB'
p417
I4
sS'withcoll'
p418
I0
sS'todo'
p419
g13
sS'omega'
p420
(lp421
F0.0
aF0.0
aF0.0
asS'massdata'
p422
S' 1.000000000000000000000000e+00 !! m(1)\n 1.000000000000000000000000e+00 !! m(2)\n 1.000000000000000000000000e+00 !! m(3)\n 1.000000000000000000000000e+00 !! m(4)\n'
p423
sS'dim'
p424
I2
sS'gammadata'
p425
S' 4 2 24  !! NOB,dim,steps\n 0.000000000000000E+00 0.000000000000000E+00 0.000000000000000E+00  !! omega\n 1.000000000000000  !! ALPHA\n 1.000000000000000  !! m( 1 )\n 1.000000000000000  !! m( 2 )\n 1.000000000000000  !! m( 3 )\n 1.000000000000000  !! m( 4 )\n 1.139011965915195 -0.8876612269721189\n 0.6126252578635905 0.2825780999090705\n 2.467528500625249E-02 -6.322911661744121E-02\n 3.390503132517955E-02 1.062392716906668E-02\n 4.334345686152236E-03 -1.426770794914346E-02\n 6.054030830611151E-03 2.263441618430628E-03\n 1.549852791927646E-03 -4.607046674074453E-03\n 1.832564902128582E-03 7.104255667555182E-04\n 6.766433902794656E-04 -1.904440956679694E-03\n 7.785188859414701E-04 2.946441873030673E-04\n 3.403990341168048E-04 -9.421343912060362E-04\n 4.044503091425698E-04 1.492823860700376E-04\n 1.912848349903609E-04 -5.284581054298928E-04\n 2.367740404802515E-04 8.618355717890554E-05\n 1.168539084509205E-04 -3.233903094856487E-04\n 1.496717090799298E-04 5.412969022612494E-05\n 7.593293191783795E-05 -2.105166153232038E-04\n 9.980728154692763E-05 3.599164444285582E-05\n 5.165785980004983E-05 -1.433918389763159E-04\n 6.922078547222355E-05 2.492806453389517E-05\n 3.637898275111844E-05 -1.010611767036373E-04\n 4.945798371517804E-05 1.780006008784778E-05\n 2.630013846643487E-05 -7.311464527838676E-05\n 3.617002653158842E-05 1.300704333246551E-05\n 1.939986457055167E-05 -5.395676228119495E-05\n 0.1992311895547214 1.430243911183073\n -0.8964819395065220 -1.065876903657121\n 0.2530937192682359 -0.6850838463927364\n -6.653416914206234E-02 -6.563669965848917E-02\n -1.083914662732496E-02 -2.592914142782560E-02\n -1.473158130654417E-02 -1.712863941143727E-04\n -8.748905312813970E-04 -1.855237603453110E-03\n -2.989496781888569E-03 3.363669051628451E-04\n 2.225510863523260E-04 -9.899952750739571E-04\n -1.209251705182105E-03 -1.131283205212733E-04\n 5.643944004535880E-05 -5.364034785039773E-04\n -6.484358269475601E-04 -6.581688659876902E-05\n 2.171444948762674E-05 -2.799512687817196E-04\n -3.696230006541526E-04 -3.338802140337373E-05\n 1.532018326081547E-05 -1.651680173646534E-04\n -2.274546122133627E-04 -2.142604015232565E-05\n 1.025608871774424E-05 -1.056287712074228E-04\n -1.489818146766413E-04 -1.448668542294775E-05\n 6.931117201745222E-06 -7.082360360174435E-05\n -1.018880666557235E-04 -1.003772025301734E-05\n 4.881488380176777E-06 -4.926772846493982E-05\n -7.198005842022799E-05 -7.149441399767996E-06\n 3.527581171173383E-06 -3.526218109365991E-05\n -5.217073634030712E-05 -5.203211321461968E-06\n 2.580486427981518E-06 -2.581474418293661E-05\n -3.855692935353545E-05 -3.884200242387998E-06\n 1.371317445627426 -0.2434376818180326\n -0.6351097115290856 1.854427006068443\n -0.3458162107222371 0.4291071674878190\n 4.840450165594479E-02 3.108094413272364E-02\n -2.265722099503542E-02 5.814290908000286E-03\n 5.236196606928339E-03 7.214092227965041E-03\n -3.998805011459355E-03 1.316519233099354E-04\n 1.117935181488167E-03 2.288878817341571E-03\n -1.224797781268966E-03 5.064600323201329E-05\n 3.818650159691985E-04 9.272529228990176E-04\n -5.334283127593036E-04 5.029303015404059E-05\n 1.792445815498528E-04 4.520286402594021E-04\n -2.824199917990586E-04 3.686233538714723E-05\n 1.002973572157619E-04 2.517680353132598E-04\n -1.673208511948215E-04 2.512048454342795E-05\n 6.181571926681343E-05 1.536513472560064E-04\n -1.065520457156129E-04 1.710572627051585E-05\n 4.049991102294420E-05 9.992469116308807E-05\n -7.138591335754301E-05 1.188110390818245E-05\n 2.770993278889810E-05 6.804017662483683E-05\n -4.966201963176888E-05 8.444824671978955E-06\n 1.958622080176515E-05 4.795016446848674E-05\n -3.555824848209405E-05 6.124315113186776E-06\n 1.420093243103236E-05 3.469344926084199E-05\n -2.604274831693554E-05 4.512406564656453E-06\n 1.052087023309303E-05 2.560552404424262E-05\n -0.2821225942274999 0.2904284180435748\n 0.3925796851204124 9.911112456079654E-02\n -0.5199027664095910 -2.660142100415303E-02\n -6.545617520134828E-03 9.778487214320666E-02\n -4.086637028191675E-04 9.490923350758629E-03\n 5.161039013463570E-03 7.224902115292781E-03\n -1.180335287870343E-03 -5.398559382874535E-04\n 3.217088084727553E-04 1.981800951570030E-03\n -8.303182072119525E-04 2.289237050864534E-04\n 1.507432989334423E-04 1.090316354301957E-03\n -3.015300132275219E-04 1.914662610468729E-04\n 1.287922112809025E-04 5.559226375454040E-04\n -1.437447668311310E-04 9.380654732453475E-05\n 7.804080844802985E-05 3.100780915200068E-04\n -8.477337254624451E-05 5.386397564232162E-05\n 4.878498449563048E-05 1.911650023819697E-04\n -5.337575208205943E-05 3.439335471078198E-05\n 3.254897173585874E-05 1.250786095830653E-04\n -3.535248539112898E-05 2.295085525070434E-05\n 2.252027406677692E-05 8.538938260449654E-05\n -2.444025422063188E-05 1.589483925906613E-05\n 1.601485486734441E-05 6.026045363491904E-05\n -1.742731640425564E-05 1.133780589262557E-05\n 1.166966544283903E-05 4.362440733900668E-05\n -1.270776464263419E-05 8.295294285814644E-06\n 8.636194549891188E-06 3.223543847933989E-05\n -1.288426040954648 -1.477234647408616\n'
p426
sS'log'
p427
g13
sS'SPMETHOD'
p428
I1
sg23
F3.314892871685139e-06
sS'masses'
p429
(lp430
F1.0
aF1.0
aF1.0
aF1.0
asS'symfilename'
p431
g13
sS'invalid'
p432
I0
sS'steps'
p433
I24
sS'ALPHA'
p434
F1.0
sS'confdata'
p435
S'!! CONFIG STRING\n&CONFIG\nCOMMAND=howsol\nSPMETHOD=3\nALG=0\nsteps=24\nALPHA=1.000000000000000000000000e+00\n/\n0.000000000000000000000000e+00 !! omega(1)\n0.000000000000000000000000e+00 !! omega(2)\n0.000000000000000000000000e+00 !! omega(3)\n'
p436
sS'gamma'
p437
(lp438
(lp439
F1.1390119659151949
aF-0.88766122697211891
aa(lp440
F0.61262525786359046
aF0.28257809990907051
aa(lp441
F0.02467528500625249
aF-0.063229116617441211
aa(lp442
F0.033905031325179552
aF0.010623927169066681
aa(lp443
F0.0043343456861522356
aF-0.014267707949143459
aa(lp444
F0.0060540308306111512
aF0.002263441618430628
aa(lp445
F0.0015498527919276461
aF-0.0046070466740744534
aa(lp446
F0.001832564902128582
aF0.00071042556675551816
aa(lp447
F0.00067664339027946564
aF-0.0019044409566796941
aa(lp448
F0.0007785188859414701
aF0.00029464418730306731
aa(lp449
F0.00034039903411680478
aF-0.00094213439120603617
aa(lp450
F0.00040445030914256982
aF0.0001492823860700376
aa(lp451
F0.0001912848349903609
aF-0.00052845810542989278
aa(lp452
F0.00023677404048025151
aF8.6183557178905537e-05
aa(lp453
F0.0001168539084509205
aF-0.0003233903094856487
aa(lp454
F0.00014967170907992979
aF5.4129690226124943e-05
aa(lp455
F7.5932931917837947e-05
aF-0.0002105166153232038
aa(lp456
F9.9807281546927633e-05
aF3.5991644442855818e-05
aa(lp457
F5.1657859800049832e-05
aF-0.00014339183897631589
aa(lp458
F6.922078547222355e-05
aF2.4928064533895171e-05
aa(lp459
F3.6378982751118442e-05
aF-0.0001010611767036373
aa(lp460
F4.9457983715178039e-05
aF1.7800060087847779e-05
aa(lp461
F2.630013846643487e-05
aF-7.3114645278386759e-05
aa(lp462
F3.6170026531588417e-05
aF1.3007043332465509e-05
aa(lp463
F1.9399864570551671e-05
aF-5.3956762281194949e-05
aa(lp464
F0.19923118955472141
aF1.4302439111830729
aa(lp465
F-0.896481939506522
aF-1.065876903657121
aa(lp466
F0.25309371926823587
aF-0.68508384639273645
aa(lp467
F-0.066534169142062338
aF-0.065636699658489173
aa(lp468
F-0.01083914662732496
aF-0.025929141427825601
aa(lp469
F-0.014731581306544171
aF-0.00017128639411437269
aa(lp470
F-0.00087489053128139704
aF-0.00185523760345311
aa(lp471
F-0.002989496781888569
aF0.00033636690516284512
aa(lp472
F0.00022255108635232601
aF-0.00098999527507395713
aa(lp473
F-0.0012092517051821049
aF-0.00011312832052127331
aa(lp474
F5.64394400453588e-05
aF-0.00053640347850397729
aa(lp475
F-0.00064843582694756007
aF-6.5816886598769019e-05
aa(lp476
F2.1714449487626741e-05
aF-0.00027995126878171961
aa(lp477
F-0.00036962300065415259
aF-3.3388021403373729e-05
aa(lp478
F1.5320183260815471e-05
aF-0.0001651680173646534
aa(lp479
F-0.0002274546122133627
aF-2.1426040152325649e-05
aa(lp480
F1.0256088717744241e-05
aF-0.00010562877120742281
aa(lp481
F-0.00014898181467664129
aF-1.4486685422947751e-05
aa(lp482
F6.9311172017452218e-06
aF-7.0823603601744348e-05
aa(lp483
F-0.0001018880666557235
aF-1.0037720253017341e-05
aa(lp484
F4.881488380176777e-06
aF-4.9267728464939819e-05
aa(lp485
F-7.1980058420227991e-05
aF-7.1494413997679959e-06
aa(lp486
F3.5275811711733829e-06
aF-3.5262181093659913e-05
aa(lp487
F-5.2170736340307118e-05
aF-5.2032113214619678e-06
aa(lp488
F2.5804864279815182e-06
aF-2.5814744182936612e-05
aa(lp489
F-3.8556929353535448e-05
aF-3.8842002423879977e-06
aa(lp490
F1.371317445627426
aF-0.2434376818180326
aa(lp491
F-0.63510971152908557
aF1.8544270060684429
aa(lp492
F-0.34581621072223712
aF0.42910716748781902
aa(lp493
F0.048404501655944787
aF0.03108094413272364
aa(lp494
F-0.022657220995035421
aF0.0058142909080002858
aa(lp495
F0.0052361966069283386
aF0.007214092227965041
aa(lp496
F-0.0039988050114593554
aF0.00013165192330993539
aa(lp497
F0.001117935181488167
aF0.002288878817341571
aa(lp498
F-0.0012247977812689661
aF5.0646003232013292e-05
aa(lp499
F0.00038186501596919852
aF0.00092725292289901756
aa(lp500
F-0.00053342831275930355
aF5.0293030154040588e-05
aa(lp501
F0.0001792445815498528
aF0.00045202864025940213
aa(lp502
F-0.00028241999179905858
aF3.6862335387147227e-05
aa(lp503
F0.0001002973572157619
aF0.00025176803531325978
aa(lp504
F-0.00016732085119482151
aF2.5120484543427951e-05
aa(lp505
F6.1815719266813431e-05
aF0.0001536513472560064
aa(lp506
F-0.0001065520457156129
aF1.7105726270515851e-05
aa(lp507
F4.0499911022944203e-05
aF9.9924691163088067e-05
aa(lp508
F-7.1385913357543008e-05
aF1.188110390818245e-05
aa(lp509
F2.7709932788898099e-05
aF6.8040176624836832e-05
aa(lp510
F-4.966201963176888e-05
aF8.4448246719789552e-06
aa(lp511
F1.9586220801765149e-05
aF4.7950164468486742e-05
aa(lp512
F-3.5558248482094053e-05
aF6.1243151131867759e-06
aa(lp513
F1.420093243103236e-05
aF3.469344926084199e-05
aa(lp514
F-2.6042748316935539e-05
aF4.5124065646564529e-06
aa(lp515
F1.0520870233093031e-05
aF2.5605524044242621e-05
aa(lp516
F-0.28212259422749991
aF0.29042841804357478
aa(lp517
F0.39257968512041241
aF0.099111124560796543
aa(lp518
F-0.51990276640959099
aF-0.026601421004153029
aa(lp519
F-0.0065456175201348277
aF0.097784872143206664
aa(lp520
F-0.00040866370281916747
aF0.0094909233507586288
aa(lp521
F0.0051610390134635697
aF0.0072249021152927806
aa(lp522
F-0.001180335287870343
aF-0.00053985593828745349
aa(lp523
F0.0003217088084727553
aF0.0019818009515700299
aa(lp524
F-0.00083031820721195249
aF0.00022892370508645341
aa(lp525
F0.00015074329893344229
aF0.0010903163543019569
aa(lp526
F-0.00030153001322752188
aF0.00019146626104687289
aa(lp527
F0.00012879221128090249
aF0.00055592263754540398
aa(lp528
F-0.00014374476683113099
aF9.380654732453475e-05
aa(lp529
F7.8040808448029853e-05
aF0.00031007809152000678
aa(lp530
F-8.4773372546244515e-05
aF5.3863975642321621e-05
aa(lp531
F4.8784984495630478e-05
aF0.00019116500238196971
aa(lp532
F-5.3375752082059427e-05
aF3.4393354710781981e-05
aa(lp533
F3.2548971735858738e-05
aF0.0001250786095830653
aa(lp534
F-3.5352485391128979e-05
aF2.2950855250704338e-05
aa(lp535
F2.2520274066776921e-05
aF8.5389382604496539e-05
aa(lp536
F-2.4440254220631881e-05
aF1.589483925906613e-05
aa(lp537
F1.601485486734441e-05
aF6.026045363491904e-05
aa(lp538
F-1.7427316404255641e-05
aF1.133780589262557e-05
aa(lp539
F1.166966544283903e-05
aF4.3624407339006683e-05
aa(lp540
F-1.270776464263419e-05
aF8.2952942858146445e-06
aa(lp541
F8.636194549891188e-06
aF3.2235438479339892e-05
aa(lp542
F-1.288426040954648
aF-1.477234647408616
aasS'viewfile'
p543
g13
sba(imin_path.mod_minpath
minpath
p544
(dp545
g3
F14.51110101450347
sS'symdata'
p546
S'!!!======================================================================\n!!! generated configuration file\n!!!======================================================================\n0 !! action_type\n4 !! NOB\n2 !! dim\n1  !! sizekerT\n1 !! perm j=1\n2 !! perm j=2\n3 !! perm j=3\n4 !! perm j=4\n1.0D0 !! matrix (j,k)=(1,1)\n0.0D0 !! matrix (j,k)=(1,2)\n0.0D0 !! matrix (j,k)=(2,1)\n1.0D0 !! matrix (j,k)=(2,2)\n6  !! cyclic_order\n1 !! cyclic_perm j=1\n2 !! cyclic_perm j=2\n4 !! cyclic_perm j=3\n3 !! cyclic_perm j=4\n-0.5D0 !! cyclic_matrix (j,k)=(1,1)\n-0.8660254037844386D0  !!! imag= 5.8286708792820718e-16 !! cyclic_matrix (j,k)=(1,2)\n0.8660254037844386D0  !!! imag= -5.8286708792820718e-16 !! cyclic_matrix (j,k)=(2,1)\n-0.5D0 !! cyclic_matrix (j,k)=(2,2)\n1 !! cyclic_perm j=1\n2 !! cyclic_perm j=2\n3 !! cyclic_perm j=3\n4 !! cyclic_perm j=4\n-0.5D0 !! cyclic_matrix (j,k)=(1,1)\n0.8660254037844386D0  !!! imag= -5.8286708792820718e-16 !! cyclic_matrix (j,k)=(1,2)\n-0.8660254037844386D0  !!! imag= 5.8286708792820718e-16 !! cyclic_matrix (j,k)=(2,1)\n-0.5D0 !! cyclic_matrix (j,k)=(2,2)\n1 !! cyclic_perm j=1\n2 !! cyclic_perm j=2\n4 !! cyclic_perm j=3\n3 !! cyclic_perm j=4\n1.0D0 !! cyclic_matrix (j,k)=(1,1)\n0.0D0 !! cyclic_matrix (j,k)=(1,2)\n0.0D0 !! cyclic_matrix (j,k)=(2,1)\n1.0D0 !! cyclic_matrix (j,k)=(2,2)\n1 !! cyclic_perm j=1\n2 !! cyclic_perm j=2\n3 !! cyclic_perm j=3\n4 !! cyclic_perm j=4\n-0.5D0 !! cyclic_matrix (j,k)=(1,1)\n-0.8660254037844386D0  !!! imag= 5.8286708792820718e-16 !! cyclic_matrix (j,k)=(1,2)\n0.8660254037844386D0  !!! imag= -5.8286708792820718e-16 !! cyclic_matrix (j,k)=(2,1)\n-0.5D0 !! cyclic_matrix (j,k)=(2,2)\n1 !! cyclic_perm j=1\n2 !! cyclic_perm j=2\n4 !! cyclic_perm j=3\n3 !! cyclic_perm j=4\n-0.5D0 !! cyclic_matrix (j,k)=(1,1)\n0.8660254037844386D0  !!! imag= -5.8286708792820718e-16 !! cyclic_matrix (j,k)=(1,2)\n-0.8660254037844386D0  !!! imag= 5.8286708792820718e-16 !! cyclic_matrix (j,k)=(2,1)\n-0.5D0 !! cyclic_matrix (j,k)=(2,2)\n1 !! cyclic_perm j=1\n2 !! cyclic_perm j=2\n3 !! cyclic_perm j=3\n4 !! cyclic_perm j=4\n1.0D0 !! cyclic_matrix (j,k)=(1,1)\n0.0D0 !! cyclic_matrix (j,k)=(1,2)\n0.0D0 !! cyclic_matrix (j,k)=(2,1)\n1.0D0 !! cyclic_matrix (j,k)=(2,2)\n'
p547
sS'TODOLIST'
p548
(lp549
S'new()'
p550
aS'relax(200)'
p551
asS'NOB'
p552
I4
sS'withcoll'
p553
I0
sS'todo'
p554
g13
sS'omega'
p555
(lp556
F0.0
aF0.0
aF0.0
asS'massdata'
p557
S' 1.000000000000000000000000e+00 !! m(1)\n 1.000000000000000000000000e+00 !! m(2)\n 1.000000000000000000000000e+00 !! m(3)\n 1.000000000000000000000000e+00 !! m(4)\n'
p558
sS'dim'
p559
I2
sS'gammadata'
p560
S' 4 2 24  !! NOB,dim,steps\n 0.000000000000000E+00 0.000000000000000E+00 0.000000000000000E+00  !! omega\n 1.000000000000000  !! ALPHA\n 1.000000000000000  !! m( 1 )\n 1.000000000000000  !! m( 2 )\n 1.000000000000000  !! m( 3 )\n 1.000000000000000  !! m( 4 )\n -1.780297244617417 -0.2421548527377251\n -0.2939268754668890 -0.8120944538678279\n -9.804263065184320E-02 -4.566525264513463E-02\n -4.615259867952641E-02 -3.603825896514354E-02\n -2.321917117249774E-02 8.191308138149458E-03\n -1.100795293805365E-02 -2.224401796441788E-04\n -6.067821211019363E-03 6.307769060903731E-03\n -2.969161643340433E-03 8.358421672492594E-04\n -1.183172622474291E-03 1.802538639262620E-03\n -6.714402367460886E-04 -1.894210328989739E-04\n -2.263107140078680E-04 8.094140785698395E-04\n -1.447583785170528E-04 -1.763159997790874E-04\n -2.655849478608151E-04 3.713331279723513E-04\n -1.983477702427149E-04 -1.784188728114621E-04\n -2.202766946490034E-04 2.038414783256606E-04\n -1.118458069838775E-04 -9.863424389902013E-05\n -1.380948852993200E-04 1.430574531293494E-04\n -6.845300589318482E-05 -5.926944249466974E-05\n -9.038225493169204E-05 9.731698377850578E-05\n -4.484687801907484E-05 -4.278517498937460E-05\n -6.361342676492257E-05 6.710450278578578E-05\n -3.231926206913251E-05 -3.162428047355547E-05\n -4.664959111475643E-05 4.821465959445608E-05\n -2.431811677795336E-05 -2.373814456271502E-05\n -6.690661765274770E-05 5.547971807867594E-05\n 1.099860876429258 -1.420705213757260\n 1.701988351459491 -0.2933921353462684\n 0.5856849057482101 0.7220870811289334\n 0.1706294357721942 -6.799358588169709E-02\n 1.378567653435225E-02 -3.114748293961226E-02\n -1.162164543276129E-02 -1.689032446480046E-02\n -3.408926239579779E-03 5.361460556612518E-03\n 4.043674365778772E-03 1.069321751309978E-03\n 2.429051041452194E-03 8.805251017284174E-04\n 1.239954831797008E-03 -1.739655093816260E-03\n 7.189810633091709E-05 -4.286306837609152E-04\n -1.212621047866850E-04 -3.729014562165759E-04\n 9.402980770279248E-05 1.993124876314353E-04\n 2.237306130254803E-04 -2.197473035145370E-04\n 1.217392785158606E-04 6.843655715830631E-05\n 9.826441526734203E-05 -1.485466696900742E-04\n 6.600970888330504E-05 3.633877079211797E-05\n 5.699942736314884E-05 -9.264685887674321E-05\n 4.368803478711769E-05 2.931559833638394E-05\n 4.099609643503505E-05 -6.318047601624847E-05\n 3.114234984283228E-05 1.967634656125077E-05\n 2.880283493078215E-05 -4.512787289956882E-05\n 2.194864896491061E-05 1.403609339250839E-05\n 2.073486794357249E-05 -3.272185900465136E-05\n 1.627451520197151E-05 1.028477330688982E-05\n 2.759052396168136E-05 -2.758294654222671E-05\n -0.5969091332493150 1.620661216982251\n 0.7205942090031816 1.305496710932656\n 7.138747508379906E-02 -0.2167364089710682\n -0.1515811341356245 3.917395874912186E-02\n 9.650346191288579E-03 6.402436644629769E-02\n 1.074733077399735E-02 1.046601422795192E-02\n 7.531988237548706E-03 1.599518255200827E-03\n -3.749813317684966E-03 -3.750357150405260E-03\n -3.902172867518202E-04 1.436570858976617E-03\n -1.222754992171185E-03 9.193968527211379E-04\n 7.770653730946771E-04 1.324948638925839E-03\n 1.692119589838089E-04 -1.621657103744248E-04\n 2.510907469031806E-04 4.038863213089768E-04\n -1.905496870869567E-04 -4.704609604982003E-05\n 8.211043082749850E-05 2.850160700974876E-04\n -5.071342382936134E-05 -1.044763282298273E-05\n 5.100703779045614E-05 1.696673531491862E-04\n -2.622829876370225E-05 -9.088232736463760E-06\n 3.296878821551497E-05 1.076811403220320E-04\n -1.913259331223598E-05 -5.972499580082086E-06\n 2.171084124889941E-05 7.549789846320650E-05\n -1.307322094358868E-05 -3.705813467879055E-06\n 1.577799631926149E-05 5.414248670381578E-05\n -9.310158136215118E-06 -2.764501936916445E-06\n 1.127713251881631E-05 3.993873640535293E-05\n -9.807660853829229E-06 -2.641634079162021E-05\n 0.9879386775463577 -0.1712605385753718\n -0.6422853158452556 -0.7699497228486629\n -0.3631455053651199 0.3067437817099627\n 7.899432901527342E-02 7.448487977770990E-02\n 2.271657595388563E-02 3.161375458458099E-03\n 2.409348583126168E-02 -1.766997901300901E-03\n 6.884890940084709E-03 -6.738538632169166E-03\n 5.773960162925557E-03 -3.626733661808476E-03\n 9.303278886400607E-04 -3.152938127954287E-03\n 1.165972782848440E-03 -9.822803981674906E-04\n -1.775232426795056E-04 -7.068969222659514E-04\n 1.783608598107441E-04 -2.743469119788396E-04\n -2.003621760889168E-04 -4.268828091613282E-04\n 2.324040219222933E-04 -1.045397284079941E-04\n -5.501939100647710E-06 -1.750337544443306E-04\n 1.727257032110296E-04 -4.484717581260383E-05\n -5.170939689883719E-06 -1.073718800422849E-04\n 1.073237566998739E-04 -4.132236151614243E-05\n -8.203817109420086E-06 -7.772729616374618E-05\n 6.851875180889297E-05 -2.816400818217608E-05\n -8.006313072658148E-06 -5.238907003508224E-05\n 4.788381277773257E-05 -1.827081641833796E-05\n -5.407383215039587E-06 -3.655429962276914E-05\n 3.522488130739895E-05 -1.272829865288806E-05\n -3.233530942834458E-06 -2.648536514952816E-05\n 4.912375454489557E-05 -1.480430744829229E-06\n -1.490890420726301 -2.869546464961964E-02\n'
p561
sS'log'
p562
g13
sS'SPMETHOD'
p563
I1
sg23
F0.75280036285242746
sS'masses'
p564
(lp565
F1.0
aF1.0
aF1.0
aF1.0
asS'symfilename'
p566
g13
sS'invalid'
p567
I0
sS'steps'
p568
I24
sS'ALPHA'
p569
F1.0
sS'confdata'
p570
S'!! CONFIG STRING\n&CONFIG\nCOMMAND=howsol\nSPMETHOD=3\nALG=0\nsteps=24\nALPHA=1.000000000000000000000000e+00\n/\n0.000000000000000000000000e+00 !! omega(1)\n0.000000000000000000000000e+00 !! omega(2)\n0.000000000000000000000000e+00 !! omega(3)\n'
p571
sS'gamma'
p572
(lp573
(lp574
F-1.780297244617417
aF-0.24215485273772511
aa(lp575
F-0.293926875466889
aF-0.81209445386782786
aa(lp576
F-0.098042630651843196
aF-0.04566525264513463
aa(lp577
F-0.04615259867952641
aF-0.036038258965143538
aa(lp578
F-0.023219171172497739
aF0.0081913081381494585
aa(lp579
F-0.01100795293805365
aF-0.00022244017964417881
aa(lp580
F-0.0060678212110193627
aF0.0063077690609037312
aa(lp581
F-0.0029691616433404331
aF0.00083584216724925942
aa(lp582
F-0.001183172622474291
aF0.0018025386392626201
aa(lp583
F-0.00067144023674608859
aF-0.00018942103289897391
aa(lp584
F-0.00022631071400786799
aF0.00080941407856983949
aa(lp585
F-0.00014475837851705281
aF-0.00017631599977908739
aa(lp586
F-0.00026558494786081509
aF0.00037133312797235131
aa(lp587
F-0.00019834777024271491
aF-0.00017841887281146209
aa(lp588
F-0.0002202766946490034
aF0.00020384147832566059
aa(lp589
F-0.00011184580698387751
aF-9.8634243899020126e-05
aa(lp590
F-0.00013809488529932
aF0.0001430574531293494
aa(lp591
F-6.8453005893184815e-05
aF-5.9269442494669742e-05
aa(lp592
F-9.0382254931692038e-05
aF9.7316983778505776e-05
aa(lp593
F-4.4846878019074842e-05
aF-4.2785174989374598e-05
aa(lp594
F-6.361342676492257e-05
aF6.7104502785785784e-05
aa(lp595
F-3.2319262069132508e-05
aF-3.1624280473555467e-05
aa(lp596
F-4.6649591114756427e-05
aF4.8214659594456083e-05
aa(lp597
F-2.4318116777953359e-05
aF-2.3738144562715021e-05
aa(lp598
F-6.69066176527477e-05
aF5.5479718078675943e-05
aa(lp599
F1.0998608764292579
aF-1.42070521375726
aa(lp600
F1.7019883514594909
aF-0.2933921353462684
aa(lp601
F0.58568490574821008
aF0.72208708112893338
aa(lp602
F0.17062943577219419
aF-0.067993585881697086
aa(lp603
F0.01378567653435225
aF-0.03114748293961226
aa(lp604
F-0.01162164543276129
aF-0.01689032446480046
aa(lp605
F-0.0034089262395797788
aF0.0053614605566125184
aa(lp606
F0.0040436743657787724
aF0.001069321751309978
aa(lp607
F0.0024290510414521939
aF0.00088052510172841741
aa(lp608
F0.0012399548317970079
aF-0.00173965509381626
aa(lp609
F7.1898106330917089e-05
aF-0.00042863068376091518
aa(lp610
F-0.000121262104786685
aF-0.00037290145621657588
aa(lp611
F9.4029807702792484e-05
aF0.0001993124876314353
aa(lp612
F0.00022373061302548029
aF-0.000219747303514537
aa(lp613
F0.0001217392785158606
aF6.8436557158306315e-05
aa(lp614
F9.8264415267342031e-05
aF-0.0001485466696900742
aa(lp615
F6.600970888330504e-05
aF3.6338770792117968e-05
aa(lp616
F5.6999427363148838e-05
aF-9.2646858876743211e-05
aa(lp617
F4.3688034787117691e-05
aF2.9315598336383941e-05
aa(lp618
F4.0996096435035052e-05
aF-6.3180476016248474e-05
aa(lp619
F3.1142349842832283e-05
aF1.9676346561250769e-05
aa(lp620
F2.8802834930782149e-05
aF-4.5127872899568819e-05
aa(lp621
F2.1948648964910609e-05
aF1.403609339250839e-05
aa(lp622
F2.0734867943572491e-05
aF-3.272185900465136e-05
aa(lp623
F1.6274515201971509e-05
aF1.028477330688982e-05
aa(lp624
F2.759052396168136e-05
aF-2.758294654222671e-05
aa(lp625
F-0.59690913324931505
aF1.620661216982251
aa(lp626
F0.72059420900318161
aF1.3054967109326561
aa(lp627
F0.071387475083799057
aF-0.21673640897106819
aa(lp628
F-0.15158113413562449
aF0.039173958749121857
aa(lp629
F0.0096503461912885793
aF0.064024366446297692
aa(lp630
F0.01074733077399735
aF0.01046601422795192
aa(lp631
F0.0075319882375487063
aF0.0015995182552008269
aa(lp632
F-0.0037498133176849659
aF-0.00375035715040526
aa(lp633
F-0.0003902172867518202
aF0.0014365708589766169
aa(lp634
F-0.001222754992171185
aF0.0009193968527211379
aa(lp635
F0.00077706537309467708
aF0.0013249486389258389
aa(lp636
F0.0001692119589838089
aF-0.00016216571037442479
aa(lp637
F0.00025109074690318062
aF0.00040388632130897682
aa(lp638
F-0.0001905496870869567
aF-4.7046096049820031e-05
aa(lp639
F8.2110430827498498e-05
aF0.00028501607009748763
aa(lp640
F-5.0713423829361337e-05
aF-1.044763282298273e-05
aa(lp641
F5.1007037790456143e-05
aF0.00016966735314918619
aa(lp642
F-2.6228298763702251e-05
aF-9.0882327364637597e-06
aa(lp643
F3.2968788215514973e-05
aF0.000107681140322032
aa(lp644
F-1.913259331223598e-05
aF-5.9724995800820857e-06
aa(lp645
F2.171084124889941e-05
aF7.5497898463206502e-05
aa(lp646
F-1.3073220943588679e-05
aF-3.705813467879055e-06
aa(lp647
F1.577799631926149e-05
aF5.4142486703815777e-05
aa(lp648
F-9.3101581362151184e-06
aF-2.764501936916445e-06
aa(lp649
F1.127713251881631e-05
aF3.9938736405352932e-05
aa(lp650
F-9.8076608538292295e-06
aF-2.641634079162021e-05
aa(lp651
F0.98793867754635767
aF-0.1712605385753718
aa(lp652
F-0.64228531584525561
aF-0.76994972284866292
aa(lp653
F-0.36314550536511991
aF0.30674378170996269
aa(lp654
F0.078994329015273423
aF0.0744848797777099
aa(lp655
F0.022716575953885629
aF0.0031613754584580989
aa(lp656
F0.024093485831261679
aF-0.0017669979013009011
aa(lp657
F0.0068848909400847091
aF-0.0067385386321691656
aa(lp658
F0.0057739601629255566
aF-0.0036267336618084761
aa(lp659
F0.00093032788864006073
aF-0.003152938127954287
aa(lp660
F0.0011659727828484401
aF-0.0009822803981674906
aa(lp661
F-0.0001775232426795056
aF-0.00070689692226595137
aa(lp662
F0.00017836085981074411
aF-0.00027434691197883958
aa(lp663
F-0.00020036217608891679
aF-0.00042688280916132817
aa(lp664
F0.00023240402192229329
aF-0.0001045397284079941
aa(lp665
F-5.5019391006477097e-06
aF-0.00017503375444433061
aa(lp666
F0.00017272570321102959
aF-4.4847175812603828e-05
aa(lp667
F-5.170939689883719e-06
aF-0.00010737188004228489
aa(lp668
F0.00010732375669987391
aF-4.1322361516142429e-05
aa(lp669
F-8.2038171094200862e-06
aF-7.7727296163746179e-05
aa(lp670
F6.8518751808892969e-05
aF-2.8164008182176081e-05
aa(lp671
F-8.0063130726581479e-06
aF-5.2389070035082242e-05
aa(lp672
F4.7883812777732571e-05
aF-1.827081641833796e-05
aa(lp673
F-5.4073832150395868e-06
aF-3.6554299622769137e-05
aa(lp674
F3.5224881307398953e-05
aF-1.272829865288806e-05
aa(lp675
F-3.2335309428344582e-06
aF-2.6485365149528159e-05
aa(lp676
F4.912375454489557e-05
aF-1.4804307448292289e-06
aa(lp677
F-1.490890420726301
aF-0.02869546464961964
aasS'viewfile'
p678
g13
sba(imin_path.mod_minpath
minpath
p679
(dp680
g3
F14.53044948776434
sS'symdata'
p681
S'!!!======================================================================\n!!! generated configuration file\n!!!======================================================================\n0 !! action_type\n4 !! NOB\n2 !! dim\n1  !! sizekerT\n1 !! perm j=1\n2 !! perm j=2\n3 !! perm j=3\n4 !! perm j=4\n1.0D0 !! matrix (j,k)=(1,1)\n0.0D0 !! matrix (j,k)=(1,2)\n0.0D0 !! matrix (j,k)=(2,1)\n1.0D0 !! matrix (j,k)=(2,2)\n6  !! cyclic_order\n1 !! cyclic_perm j=1\n2 !! cyclic_perm j=2\n4 !! cyclic_perm j=3\n3 !! cyclic_perm j=4\n-0.5D0 !! cyclic_matrix (j,k)=(1,1)\n-0.8660254037844386D0  !!! imag= 5.8286708792820718e-16 !! cyclic_matrix (j,k)=(1,2)\n0.8660254037844386D0  !!! imag= -5.8286708792820718e-16 !! cyclic_matrix (j,k)=(2,1)\n-0.5D0 !! cyclic_matrix (j,k)=(2,2)\n1 !! cyclic_perm j=1\n2 !! cyclic_perm j=2\n3 !! cyclic_perm j=3\n4 !! cyclic_perm j=4\n-0.5D0 !! cyclic_matrix (j,k)=(1,1)\n0.8660254037844386D0  !!! imag= -5.8286708792820718e-16 !! cyclic_matrix (j,k)=(1,2)\n-0.8660254037844386D0  !!! imag= 5.8286708792820718e-16 !! cyclic_matrix (j,k)=(2,1)\n-0.5D0 !! cyclic_matrix (j,k)=(2,2)\n1 !! cyclic_perm j=1\n2 !! cyclic_perm j=2\n4 !! cyclic_perm j=3\n3 !! cyclic_perm j=4\n1.0D0 !! cyclic_matrix (j,k)=(1,1)\n0.0D0 !! cyclic_matrix (j,k)=(1,2)\n0.0D0 !! cyclic_matrix (j,k)=(2,1)\n1.0D0 !! cyclic_matrix (j,k)=(2,2)\n1 !! cyclic_perm j=1\n2 !! cyclic_perm j=2\n3 !! cyclic_perm j=3\n4 !! cyclic_perm j=4\n-0.5D0 !! cyclic_matrix (j,k)=(1,1)\n-0.8660254037844386D0  !!! imag= 5.8286708792820718e-16 !! cyclic_matrix (j,k)=(1,2)\n0.8660254037844386D0  !!! imag= -5.8286708792820718e-16 !! cyclic_matrix (j,k)=(2,1)\n-0.5D0 !! cyclic_matrix (j,k)=(2,2)\n1 !! cyclic_perm j=1\n2 !! cyclic_perm j=2\n4 !! cyclic_perm j=3\n3 !! cyclic_perm j=4\n-0.5D0 !! cyclic_matrix (j,k)=(1,1)\n0.8660254037844386D0  !!! imag= -5.8286708792820718e-16 !! cyclic_matrix (j,k)=(1,2)\n-0.8660254037844386D0  !!! imag= 5.8286708792820718e-16 !! cyclic_matrix (j,k)=(2,1)\n-0.5D0 !! cyclic_matrix (j,k)=(2,2)\n1 !! cyclic_perm j=1\n2 !! cyclic_perm j=2\n3 !! cyclic_perm j=3\n4 !! cyclic_perm j=4\n1.0D0 !! cyclic_matrix (j,k)=(1,1)\n0.0D0 !! cyclic_matrix (j,k)=(1,2)\n0.0D0 !! cyclic_matrix (j,k)=(2,1)\n1.0D0 !! cyclic_matrix (j,k)=(2,2)\n'
p682
sS'TODOLIST'
p683
(lp684
S'new()'
p685
aS'relax(200)'
p686
asS'NOB'
p687
I4
sS'withcoll'
p688
I0
sS'todo'
p689
g13
sS'omega'
p690
(lp691
F0.0
aF0.0
aF0.0
asS'massdata'
p692
S' 1.000000000000000000000000e+00 !! m(1)\n 1.000000000000000000000000e+00 !! m(2)\n 1.000000000000000000000000e+00 !! m(3)\n 1.000000000000000000000000e+00 !! m(4)\n'
p693
sS'dim'
p694
I2
sS'gammadata'
p695
S' 4 2 24  !! NOB,dim,steps\n 0.000000000000000E+00 0.000000000000000E+00 0.000000000000000E+00  !! omega\n 1.000000000000000  !! ALPHA\n 1.000000000000000  !! m( 1 )\n 1.000000000000000  !! m( 2 )\n 1.000000000000000  !! m( 3 )\n 1.000000000000000  !! m( 4 )\n -1.575169174079093 0.7421801728281707\n -0.6939661887423676 -0.4537788622482362\n 4.949631179719916E-03 0.1094409198608837\n -1.981254897364115E-02 -5.097409688204757E-02\n -1.383565632425210E-02 1.876859052274855E-02\n 8.987430262501483E-04 -8.488686159997705E-03\n -5.948883554018125E-03 3.105293881984994E-03\n 2.658183181953044E-04 -1.509645967207041E-03\n -2.144367935985603E-03 6.886271775174424E-04\n -2.306656042980748E-04 -5.007623543091255E-04\n -8.880519526459352E-04 3.638445506692276E-04\n -2.255654770152507E-04 -3.176229209861936E-04\n -4.737688954234605E-04 2.597859983357903E-04\n -1.413996619439727E-04 -2.173995572534559E-04\n -2.971792201139365E-04 1.776883253563344E-04\n -8.561502178036466E-05 -1.437715034843939E-04\n -1.983531020382807E-04 1.186976662025593E-04\n -5.572816562231936E-05 -9.571333310128688E-05\n -1.364125165711951E-04 8.096204510164157E-05\n -3.875597697730230E-05 -6.592284554792025E-05\n -9.631616337974717E-05 5.716861602658718E-05\n -2.795752355785105E-05 -4.703869802655247E-05\n -6.968038656781153E-05 4.157947818739065E-05\n -2.061495579493144E-05 -3.446269310995904E-05\n -5.140647022619234E-05 3.083873890019628E-05\n 0.1448377031852317 -1.735226606424732\n 1.575217200971956 -0.7420752608690933\n 0.6939452748125965 0.4538348164893353\n -4.942457539444778E-03 -0.1094558161642105\n 1.980224754743887E-02 5.097673605012676E-02\n 1.383855865431483E-02 -1.876644603095370E-02\n -9.007277513357614E-04 8.487073326130190E-03\n 5.948919452751722E-03 -3.103730048069409E-03\n -2.659756837878890E-04 1.509006443610295E-03\n 2.144078374670233E-03 -6.881187944187683E-04\n 2.306837691135044E-04 5.006402573268787E-04\n 8.878788540583604E-04 -3.636911272795820E-04\n 2.255424683212243E-04 3.176149953468405E-04\n 4.736942399484068E-04 -2.597151517658121E-04\n 1.413558581332972E-04 2.173948354553111E-04\n 2.971466423958439E-04 -1.776349007198419E-04\n 8.557963036747059E-05 1.437592339951638E-04\n 1.983328159930798E-04 -1.186556736477648E-04\n 5.570555168562478E-05 9.570160372056758E-05\n 1.363972980015045E-04 -8.093165149711257E-05\n 3.874133702062534E-05 6.591446779578847E-05\n 9.630487004407906E-05 -5.714719886479314E-05\n 2.794730477536939E-05 4.703305041012934E-05\n 6.967214804161088E-05 -4.156415038581579E-05\n 2.060754771975037E-05 3.445888309475467E-05\n 5.140799226115546E-05 -3.083697463596158E-05\n -0.1449525730533878 1.735215742954477\n 0.4412933135796422 -0.8966838463702729\n 0.3266493072489989 -0.2856660323570219\n -6.542085734344427E-02 -0.1050119060987429\n -1.088939835001845E-02 1.778251805779318E-02\n 4.170173188794424E-03 -1.840155080624786E-02\n -8.870592842575409E-03 2.310277786379378E-03\n 2.662303047705539E-03 -3.092826093765599E-03\n -3.224271559073143E-03 -4.839259451001054E-04\n 6.496682155998634E-04 -6.467635672392502E-04\n -1.147875583778379E-03 -3.926898395146816E-04\n 1.058574387733102E-04 -3.123157974930166E-04\n -5.227745863232366E-04 -1.595226649966502E-04\n 2.388113002167215E-05 -2.182694971503100E-04\n -3.068958805764262E-04 -6.384904235285814E-05\n 1.854822780555931E-05 -1.480219396648441E-04\n -2.012537952307113E-04 -3.362786172730892E-05\n 1.561187584212670E-05 -9.782759142278573E-05\n -1.368462320488865E-04 -2.213930247745455E-05\n 1.127544487842819E-05 -6.603018798433807E-05\n -9.534625375565690E-05 -1.557135646427805E-05\n 7.789358686239797E-06 -4.625949632211523E-05\n -6.812925198288735E-05 -1.106659570993679E-05\n 5.466918296330447E-06 -3.347034735481057E-05\n -4.977421095880147E-05 -7.949532049156618E-06\n 3.910315771736648E-06 -2.474295088222833E-05\n -0.5557894634618208 -0.8305022797950503\n -0.4413413404724977 0.8965789344111865\n -0.3266283933192287 0.2856100781159192\n 6.541368370316913E-02 0.1050268024020706\n 1.089969977621941E-02 -1.778515722587226E-02\n -4.173075518857372E-03 1.839940631445303E-02\n 8.872577567661022E-03 -2.308664952511807E-03\n -2.662338946439302E-03 3.091262259850125E-03\n 3.224428924665713E-03 4.845654686967960E-04\n -6.493786542844937E-04 6.462551841406317E-04\n 1.147857418962062E-03 3.928119364969285E-04\n -1.056843401857355E-04 3.121623741033711E-04\n 5.227975950172700E-04 1.595305906360034E-04\n -2.380647454661156E-05 2.181986505803313E-04\n 3.069396843871021E-04 6.385376415100246E-05\n -1.851565008746583E-05 1.479685150283239E-04\n 2.012891866436089E-04 3.364013121653561E-05\n -1.559158979692540E-05 9.778559886798599E-05\n 1.368688459855820E-04 2.215103185817472E-05\n -1.126022630873729E-05 6.599979437980213E-05\n 9.536089371233396E-05 1.557973421640896E-05\n -7.778065350571260E-06 4.623807916037670E-05\n 6.813947076536857E-05 1.107224332634604E-05\n -5.458679770130662E-06 3.345501955323918E-05\n 4.978161903400335E-05 7.953342064359256E-06\n -3.911837806700423E-06 2.474118661810465E-05\n 0.5559043333299751 0.8305131432653177\n'
p696
sS'log'
p697
g13
sS'SPMETHOD'
p698
I1
sg23
F0.00025062893650803711
sS'masses'
p699
(lp700
F1.0
aF1.0
aF1.0
aF1.0
asS'symfilename'
p701
g13
sS'invalid'
p702
I0
sS'steps'
p703
I24
sS'ALPHA'
p704
F1.0
sS'confdata'
p705
S'!! CONFIG STRING\n&CONFIG\nCOMMAND=howsol\nSPMETHOD=3\nALG=0\nsteps=24\nALPHA=1.000000000000000000000000e+00\n/\n0.000000000000000000000000e+00 !! omega(1)\n0.000000000000000000000000e+00 !! omega(2)\n0.000000000000000000000000e+00 !! omega(3)\n'
p706
sS'gamma'
p707
(lp708
(lp709
F-1.575169174079093
aF0.74218017282817073
aa(lp710
F-0.6939661887423676
aF-0.45377886224823621
aa(lp711
F0.0049496311797199164
aF0.1094409198608837
aa(lp712
F-0.01981254897364115
aF-0.05097409688204757
aa(lp713
F-0.013835656324252101
aF0.018768590522748551
aa(lp714
F0.00089874302625014835
aF-0.0084886861599977048
aa(lp715
F-0.0059488835540181251
aF0.003105293881984994
aa(lp716
F0.00026581831819530438
aF-0.001509645967207041
aa(lp717
F-0.0021443679359856031
aF0.0006886271775174424
aa(lp718
F-0.00023066560429807481
aF-0.00050076235430912552
aa(lp719
F-0.00088805195264593517
aF0.00036384455066922761
aa(lp720
F-0.0002255654770152507
aF-0.0003176229209861936
aa(lp721
F-0.00047376889542346048
aF0.00025978599833579029
aa(lp722
F-0.0001413996619439727
aF-0.0002173995572534559
aa(lp723
F-0.00029717922011393653
aF0.00017768832535633439
aa(lp724
F-8.5615021780364661e-05
aF-0.00014377150348439391
aa(lp725
F-0.0001983531020382807
aF0.0001186976662025593
aa(lp726
F-5.5728165622319359e-05
aF-9.5713333101286879e-05
aa(lp727
F-0.00013641251657119509
aF8.0962045101641567e-05
aa(lp728
F-3.8755976977302299e-05
aF-6.5922845547920252e-05
aa(lp729
F-9.6316163379747168e-05
aF5.7168616026587182e-05
aa(lp730
F-2.7957523557851051e-05
aF-4.7038698026552472e-05
aa(lp731
F-6.9680386567811531e-05
aF4.1579478187390648e-05
aa(lp732
F-2.0614955794931441e-05
aF-3.4462693109959038e-05
aa(lp733
F-5.1406470226192337e-05
aF3.0838738900196283e-05
aa(lp734
F0.1448377031852317
aF-1.7352266064247319
aa(lp735
F1.5752172009719561
aF-0.74207526086909326
aa(lp736
F0.69394527481259649
aF0.45383481648933532
aa(lp737
F-0.0049424575394447778
aF-0.1094558161642105
aa(lp738
F0.019802247547438871
aF0.050976736050126759
aa(lp739
F0.013838558654314831
aF-0.018766446030953701
aa(lp740
F-0.00090072775133576144
aF0.0084870733261301901
aa(lp741
F0.005948919452751722
aF-0.003103730048069409
aa(lp742
F-0.000265975683787889
aF0.001509006443610295
aa(lp743
F0.002144078374670233
aF-0.00068811879441876833
aa(lp744
F0.00023068376911350441
aF0.00050064025732687867
aa(lp745
F0.00088787885405836042
aF-0.00036369112727958197
aa(lp746
F0.00022554246832122429
aF0.00031761499534684051
aa(lp747
F0.00047369423994840677
aF-0.00025971515176581209
aa(lp748
F0.00014135585813329719
aF0.00021739483545531109
aa(lp749
F0.00029714664239584391
aF-0.00017763490071984189
aa(lp750
F8.5579630367470585e-05
aF0.0001437592339951638
aa(lp751
F0.00019833281599307981
aF-0.0001186556736477648
aa(lp752
F5.5705551685624778e-05
aF9.5701603720567581e-05
aa(lp753
F0.00013639729800150451
aF-8.0931651497112567e-05
aa(lp754
F3.8741337020625343e-05
aF6.5914467795788467e-05
aa(lp755
F9.6304870044079064e-05
aF-5.7147198864793143e-05
aa(lp756
F2.794730477536939e-05
aF4.703305041012934e-05
aa(lp757
F6.9672148041610878e-05
aF-4.156415038581579e-05
aa(lp758
F2.0607547719750371e-05
aF3.4458883094754672e-05
aa(lp759
F5.1407992261155461e-05
aF-3.0836974635961578e-05
aa(lp760
F-0.1449525730533878
aF1.735215742954477
aa(lp761
F0.44129331357964219
aF-0.89668384637027287
aa(lp762
F0.32664930724899888
aF-0.28566603235702193
aa(lp763
F-0.065420857343444272
aF-0.1050119060987429
aa(lp764
F-0.01088939835001845
aF0.017782518057793181
aa(lp765
F0.0041701731887944238
aF-0.018401550806247859
aa(lp766
F-0.0088705928425754088
aF0.0023102777863793782
aa(lp767
F0.0026623030477055392
aF-0.0030928260937655989
aa(lp768
F-0.0032242715590731432
aF-0.00048392594510010539
aa(lp769
F0.00064966821559986343
aF-0.00064676356723925021
aa(lp770
F-0.001147875583778379
aF-0.00039268983951468162
aa(lp771
F0.00010585743877331021
aF-0.00031231579749301658
aa(lp772
F-0.00052277458632323665
aF-0.00015952266499665019
aa(lp773
F2.3881130021672151e-05
aF-0.00021826949715031001
aa(lp774
F-0.00030689588057642618
aF-6.3849042352858137e-05
aa(lp775
F1.8548227805559311e-05
aF-0.00014802193966484409
aa(lp776
F-0.00020125379523071131
aF-3.3627861727308923e-05
aa(lp777
F1.5611875842126699e-05
aF-9.7827591422785729e-05
aa(lp778
F-0.00013684623204888649
aF-2.2139302477454551e-05
aa(lp779
F1.127544487842819e-05
aF-6.6030187984338073e-05
aa(lp780
F-9.53462537556569e-05
aF-1.5571356464278051e-05
aa(lp781
F7.7893586862397973e-06
aF-4.6259496322115228e-05
aa(lp782
F-6.8129251982887353e-05
aF-1.106659570993679e-05
aa(lp783
F5.4669182963304466e-06
aF-3.3470347354810567e-05
aa(lp784
F-4.9774210958801468e-05
aF-7.9495320491566185e-06
aa(lp785
F3.9103157717366478e-06
aF-2.4742950882228328e-05
aa(lp786
F-0.55578946346182079
aF-0.83050227979505031
aa(lp787
F-0.44134134047249768
aF0.89657893441118652
aa(lp788
F-0.32662839331922872
aF0.28561007811591921
aa(lp789
F0.065413683703169134
aF0.1050268024020706
aa(lp790
F0.01089969977621941
aF-0.017785157225872261
aa(lp791
F-0.004173075518857372
aF0.01839940631445303
aa(lp792
F0.0088725775676610219
aF-0.002308664952511807
aa(lp793
F-0.0026623389464393021
aF0.0030912622598501249
aa(lp794
F0.003224428924665713
aF0.00048456546869679601
aa(lp795
F-0.00064937865428449371
aF0.00064625518414063166
aa(lp796
F0.001147857418962062
aF0.00039281193649692853
aa(lp797
F-0.0001056843401857355
aF0.00031216237410337111
aa(lp798
F0.00052279759501727002
aF0.00015953059063600339
aa(lp799
F-2.3806474546611559e-05
aF0.00021819865058033129
aa(lp800
F0.00030693968438710211
aF6.3853764151002457e-05
aa(lp801
F-1.8515650087465831e-05
aF0.00014796851502832389
aa(lp802
F0.00020128918664360891
aF3.3640131216535613e-05
aa(lp803
F-1.55915897969254e-05
aF9.778559886798599e-05
aa(lp804
F0.00013686884598558199
aF2.215103185817472e-05
aa(lp805
F-1.1260226308737289e-05
aF6.5999794379802135e-05
aa(lp806
F9.5360893712333964e-05
aF1.5579734216408962e-05
aa(lp807
F-7.7780653505712602e-06
aF4.6238079160376699e-05
aa(lp808
F6.8139470765368575e-05
aF1.107224332634604e-05
aa(lp809
F-5.4586797701306616e-06
aF3.3455019553239179e-05
aa(lp810
F4.9781619034003348e-05
aF7.9533420643592562e-06
aa(lp811
F-3.9118378067004231e-06
aF2.4741186618104649e-05
aa(lp812
F0.55590433332997513
aF0.83051314326531767
aasS'viewfile'
p813
g13
sba(imin_path.mod_minpath
minpath
p814
(dp815
g3
F14.543562821470211
sS'symdata'
p816
S'!!!======================================================================\n!!! generated configuration file\n!!!======================================================================\n0 !! action_type\n4 !! NOB\n2 !! dim\n1  !! sizekerT\n1 !! perm j=1\n2 !! perm j=2\n3 !! perm j=3\n4 !! perm j=4\n1.0D0 !! matrix (j,k)=(1,1)\n0.0D0 !! matrix (j,k)=(1,2)\n0.0D0 !! matrix (j,k)=(2,1)\n1.0D0 !! matrix (j,k)=(2,2)\n6  !! cyclic_order\n1 !! cyclic_perm j=1\n2 !! cyclic_perm j=2\n4 !! cyclic_perm j=3\n3 !! cyclic_perm j=4\n-0.5D0 !! cyclic_matrix (j,k)=(1,1)\n-0.8660254037844386D0  !!! imag= 5.8286708792820718e-16 !! cyclic_matrix (j,k)=(1,2)\n0.8660254037844386D0  !!! imag= -5.8286708792820718e-16 !! cyclic_matrix (j,k)=(2,1)\n-0.5D0 !! cyclic_matrix (j,k)=(2,2)\n1 !! cyclic_perm j=1\n2 !! cyclic_perm j=2\n3 !! cyclic_perm j=3\n4 !! cyclic_perm j=4\n-0.5D0 !! cyclic_matrix (j,k)=(1,1)\n0.8660254037844386D0  !!! imag= -5.8286708792820718e-16 !! cyclic_matrix (j,k)=(1,2)\n-0.8660254037844386D0  !!! imag= 5.8286708792820718e-16 !! cyclic_matrix (j,k)=(2,1)\n-0.5D0 !! cyclic_matrix (j,k)=(2,2)\n1 !! cyclic_perm j=1\n2 !! cyclic_perm j=2\n4 !! cyclic_perm j=3\n3 !! cyclic_perm j=4\n1.0D0 !! cyclic_matrix (j,k)=(1,1)\n0.0D0 !! cyclic_matrix (j,k)=(1,2)\n0.0D0 !! cyclic_matrix (j,k)=(2,1)\n1.0D0 !! cyclic_matrix (j,k)=(2,2)\n1 !! cyclic_perm j=1\n2 !! cyclic_perm j=2\n3 !! cyclic_perm j=3\n4 !! cyclic_perm j=4\n-0.5D0 !! cyclic_matrix (j,k)=(1,1)\n-0.8660254037844386D0  !!! imag= 5.8286708792820718e-16 !! cyclic_matrix (j,k)=(1,2)\n0.8660254037844386D0  !!! imag= -5.8286708792820718e-16 !! cyclic_matrix (j,k)=(2,1)\n-0.5D0 !! cyclic_matrix (j,k)=(2,2)\n1 !! cyclic_perm j=1\n2 !! cyclic_perm j=2\n4 !! cyclic_perm j=3\n3 !! cyclic_perm j=4\n-0.5D0 !! cyclic_matrix (j,k)=(1,1)\n0.8660254037844386D0  !!! imag= -5.8286708792820718e-16 !! cyclic_matrix (j,k)=(1,2)\n-0.8660254037844386D0  !!! imag= 5.8286708792820718e-16 !! cyclic_matrix (j,k)=(2,1)\n-0.5D0 !! cyclic_matrix (j,k)=(2,2)\n1 !! cyclic_perm j=1\n2 !! cyclic_perm j=2\n3 !! cyclic_perm j=3\n4 !! cyclic_perm j=4\n1.0D0 !! cyclic_matrix (j,k)=(1,1)\n0.0D0 !! cyclic_matrix (j,k)=(1,2)\n0.0D0 !! cyclic_matrix (j,k)=(2,1)\n1.0D0 !! cyclic_matrix (j,k)=(2,2)\n'
p817
sS'TODOLIST'
p818
(lp819
S'new()'
p820
aS'relax(200)'
p821
asS'NOB'
p822
I4
sS'withcoll'
p823
I0
sS'todo'
p824
g13
sS'omega'
p825
(lp826
F0.0
aF0.0
aF0.0
asS'massdata'
p827
S' 1.000000000000000000000000e+00 !! m(1)\n 1.000000000000000000000000e+00 !! m(2)\n 1.000000000000000000000000e+00 !! m(3)\n 1.000000000000000000000000e+00 !! m(4)\n'
p828
sS'dim'
p829
I2
sS'gammadata'
p830
S' 4 2 24  !! NOB,dim,steps\n 0.000000000000000E+00 0.000000000000000E+00 0.000000000000000E+00  !! omega\n 1.000000000000000  !! ALPHA\n 1.000000000000000  !! m( 1 )\n 1.000000000000000  !! m( 2 )\n 1.000000000000000  !! m( 3 )\n 1.000000000000000  !! m( 4 )\n -1.468545943848127 0.8189250266881238\n -0.8281814206111555 -0.4470098937377145\n -2.406459744747913E-02 0.1870344158331037\n 4.117864898622514E-02 -3.226015221722189E-02\n -2.388737365704241E-02 -1.077244252454745E-02\n -4.540213863130638E-03 7.132688925736930E-03\n 2.226730815637623E-03 1.566639205295983E-03\n -1.119784891354336E-03 -2.201347024348606E-03\n -1.187086345888488E-03 1.012795911894862E-03\n -8.688203922145024E-05 -2.685921470462205E-04\n -4.371529480816649E-04 2.796501361981008E-04\n -1.590554530678800E-04 -1.170567158799221E-04\n -1.839890185792448E-04 1.967584334400044E-04\n -9.919558381032978E-05 -1.132457945602072E-04\n -1.388180810195649E-04 1.328740686395158E-04\n -5.324022897181327E-05 -5.854444547508976E-05\n -8.579794262333906E-05 7.954103696080489E-05\n -4.088299641831668E-05 -4.003657705100704E-05\n -5.788910303219583E-05 5.725994257225423E-05\n -2.724815327521555E-05 -2.884176418089905E-05\n -4.170122879609828E-05 4.009790376187719E-05\n -1.955925395465130E-05 -2.017010147540004E-05\n -2.999489969027214E-05 2.892738829294423E-05\n -1.442336028755625E-05 -1.482405251752861E-05\n -2.277716566556620E-05 1.463963662086030E-05\n 2.506309501729476E-02 -1.681260607341134\n 1.624858419353256 -0.4775797872321164\n 0.6626013773834387 0.7063529857878539\n 0.1397363268881424 -0.1229557723115562\n -7.785891958324243E-03 -3.354854614653124E-02\n -9.985463387836901E-03 -3.307968227694191E-03\n 1.570669231672928E-03 4.793948593657338E-03\n 2.766532190209503E-03 -1.238632524047878E-03\n -6.061756309672095E-05 -5.175568475957598E-05\n 4.505413197104513E-04 -4.986395053007964E-04\n 4.939089248625916E-04 4.925933889143863E-04\n 3.188454252562867E-04 -4.734902901452238E-04\n 1.411774342305050E-04 7.714652536643107E-05\n 1.390451924817432E-04 -1.710303016143611E-04\n 8.443626729648379E-05 9.292012335485045E-05\n 1.183047897690415E-04 -1.143493121939787E-04\n 5.228633025229634E-05 4.519335462935693E-05\n 6.823276113354648E-05 -7.435079542942170E-05\n 3.551556135821671E-05 3.531284517364550E-05\n 4.949311303795514E-05 -5.091675714215173E-05\n 2.457764049913118E-05 2.303815970306497E-05\n 3.404121243756608E-05 -3.611265136598332E-05\n 1.774279027751124E-05 1.695682102125212E-05\n 2.509962262975396E-05 -2.587004336128732E-05\n 1.273721800524458E-05 1.236759300445207E-05\n -4.040374019798065E-06 -3.815382725124973E-05\n -0.3988329815996483 1.645958562329003\n 0.2469842279672232 1.122330067743427\n -0.1120139264008948 -0.1488400418348341\n -0.1414480900139488 0.1171339900719452\n 3.016670491762952E-02 4.498226101061276E-02\n 1.493757493384784E-02 2.562450425936502E-03\n 3.297605967505057E-03 1.526445704314039E-05\n -2.405705779926937E-03 7.534784516722848E-04\n 1.902590424610717E-03 1.313457858352421E-03\n -3.798417438338753E-05 3.196407383659200E-04\n 3.282751989097264E-04 1.696689195116452E-04\n -1.377634813219675E-04 3.587447385711880E-04\n 2.880549483907924E-04 2.593489429029705E-04\n -2.685528616190591E-05 9.905747759154232E-05\n 1.641773950167291E-04 1.036683244905121E-04\n -4.793966637883784E-05 6.769431161923745E-05\n 1.050547427076422E-04 7.909879281006683E-05\n -2.208269737993818E-05 4.349394405083590E-05\n 6.983544217196991E-05 4.782028397904217E-05\n -1.788198071244612E-05 2.973552832551563E-05\n 4.873601505385851E-05 3.478978122780849E-05\n -1.168297479138547E-05 2.112378029262441E-05\n 3.478506485832256E-05 2.445640354226900E-05\n -8.894197886556710E-06 1.501131317313813E-05\n 2.570674757221975E-05 1.796079539488800E-05\n 1.105589979344401E-05 3.630817822047969E-05\n 1.469228350662860 0.3825724631301455\n -0.4032967034723427 -1.463675307199420\n 0.2775939696286080 -0.1105030502153070\n 2.577636057328725E-02 -0.1812126335934927\n -6.355946194553042E-02 2.082643735314083E-02\n 1.893526211103236E-02 1.151796032630492E-02\n -3.280613360474582E-04 -1.194190197643752E-02\n -2.587557225919301E-03 -1.081485132920390E-03\n -7.221879701599931E-04 9.396448507557539E-04\n 7.745292005609805E-04 -8.337971449599857E-04\n -7.353020845508672E-04 -3.936701613800331E-04\n 2.560710041473457E-04 -1.649045846240788E-04\n -2.701769295534243E-04 -2.194387523894864E-04\n 7.179911225939362E-05 -1.247856094171787E-04\n -1.494180785029942E-04 -8.334265328516222E-05\n 6.845295762403225E-05 -8.621906806483004E-05\n -1.041008439881148E-04 -6.574770196433356E-05\n 3.964787886973076E-05 -4.868418558221822E-05\n -6.446800711187514E-05 -4.309655210167802E-05\n 2.627797070668333E-05 -3.607871375561553E-05\n -4.606550227777414E-05 -2.898617674997354E-05\n 1.934299114991073E-05 -2.510903268851915E-05\n -3.296860118116862E-05 -2.124312308812021E-05\n 1.378947494706795E-05 -1.806865810479483E-05\n -2.402060528991501E-05 -1.550433588180800E-05\n 1.576163989192025E-05 -1.279398759009042E-05\n -1.095458464080529 -0.3472704181180104\n'
p831
sS'log'
p832
g13
sS'SPMETHOD'
p833
I1
sg23
F1.0855228010928091
sS'masses'
p834
(lp835
F1.0
aF1.0
aF1.0
aF1.0
asS'symfilename'
p836
g13
sS'invalid'
p837
I0
sS'steps'
p838
I24
sS'ALPHA'
p839
F1.0
sS'confdata'
p840
S'!! CONFIG STRING\n&CONFIG\nCOMMAND=howsol\nSPMETHOD=3\nALG=0\nsteps=24\nALPHA=1.000000000000000000000000e+00\n/\n0.000000000000000000000000e+00 !! omega(1)\n0.000000000000000000000000e+00 !! omega(2)\n0.000000000000000000000000e+00 !! omega(3)\n'
p841
sS'gamma'
p842
(lp843
(lp844
F-1.468545943848127
aF0.81892502668812384
aa(lp845
F-0.82818142061115552
aF-0.44700989373771449
aa(lp846
F-0.02406459744747913
aF0.18703441583310371
aa(lp847
F0.041178648986225141
aF-0.032260152217221887
aa(lp848
F-0.02388737365704241
aF-0.010772442524547451
aa(lp849
F-0.0045402138631306377
aF0.0071326889257369297
aa(lp850
F0.0022267308156376231
aF0.001566639205295983
aa(lp851
F-0.001119784891354336
aF-0.0022013470243486058
aa(lp852
F-0.0011870863458884879
aF0.0010127959118948621
aa(lp853
F-8.6882039221450238e-05
aF-0.00026859214704622048
aa(lp854
F-0.00043715294808166488
aF0.00027965013619810081
aa(lp855
F-0.00015905545306787999
aF-0.0001170567158799221
aa(lp856
F-0.00018398901857924479
aF0.0001967584334400044
aa(lp857
F-9.9195583810329779e-05
aF-0.0001132457945602072
aa(lp858
F-0.00013881808101956489
aF0.00013287406863951581
aa(lp859
F-5.3240228971813269e-05
aF-5.854444547508976e-05
aa(lp860
F-8.5797942623339063e-05
aF7.9541036960804889e-05
aa(lp861
F-4.0882996418316678e-05
aF-4.0036577051007043e-05
aa(lp862
F-5.7889103032195827e-05
aF5.7259942572254231e-05
aa(lp863
F-2.7248153275215549e-05
aF-2.8841764180899052e-05
aa(lp864
F-4.1701228796098277e-05
aF4.0097903761877191e-05
aa(lp865
F-1.9559253954651301e-05
aF-2.0170101475400042e-05
aa(lp866
F-2.999489969027214e-05
aF2.8927388292944231e-05
aa(lp867
F-1.4423360287556249e-05
aF-1.4824052517528609e-05
aa(lp868
F-2.2777165665566201e-05
aF1.46396366208603e-05
aa(lp869
F0.02506309501729476
aF-1.681260607341134
aa(lp870
F1.624858419353256
aF-0.47757978723211642
aa(lp871
F0.66260137738343872
aF0.70635298578785388
aa(lp872
F0.13973632688814239
aF-0.1229557723115562
aa(lp873
F-0.0077858919583242434
aF-0.033548546146531237
aa(lp874
F-0.0099854633878369015
aF-0.0033079682276941909
aa(lp875
F0.001570669231672928
aF0.0047939485936573378
aa(lp876
F0.002766532190209503
aF-0.0012386325240478779
aa(lp877
F-6.061756309672095e-05
aF-5.1755684759575982e-05
aa(lp878
F0.0004505413197104513
aF-0.00049863950530079637
aa(lp879
F0.00049390892486259161
aF0.00049259338891438631
aa(lp880
F0.00031884542525628667
aF-0.00047349029014522379
aa(lp881
F0.00014117743423050499
aF7.7146525366431074e-05
aa(lp882
F0.00013904519248174321
aF-0.00017103030161436111
aa(lp883
F8.4436267296483791e-05
aF9.2920123354850448e-05
aa(lp884
F0.0001183047897690415
aF-0.0001143493121939787
aa(lp885
F5.2286330252296342e-05
aF4.5193354629356933e-05
aa(lp886
F6.8232761133546482e-05
aF-7.4350795429421702e-05
aa(lp887
F3.5515561358216707e-05
aF3.5312845173645503e-05
aa(lp888
F4.9493113037955137e-05
aF-5.0916757142151728e-05
aa(lp889
F2.4577640499131179e-05
aF2.303815970306497e-05
aa(lp890
F3.4041212437566082e-05
aF-3.6112651365983323e-05
aa(lp891
F1.7742790277511241e-05
aF1.6956821021252118e-05
aa(lp892
F2.5099622629753959e-05
aF-2.587004336128732e-05
aa(lp893
F1.2737218005244581e-05
aF1.236759300445207e-05
aa(lp894
F-4.0403740197980653e-06
aF-3.8153827251249733e-05
aa(lp895
F-0.39883298159964831
aF1.6459585623290029
aa(lp896
F0.24698422796722319
aF1.1223300677434269
aa(lp897
F-0.1120139264008948
aF-0.1488400418348341
aa(lp898
F-0.14144809001394881
aF0.11713399007194519
aa(lp899
F0.03016670491762952
aF0.044982261010612763
aa(lp900
F0.01493757493384784
aF0.0025624504259365022
aa(lp901
F0.0032976059675050569
aF1.5264457043140389e-05
aa(lp902
F-0.002405705779926937
aF0.00075347845167228478
aa(lp903
F0.001902590424610717
aF0.0013134578583524209
aa(lp904
F-3.7984174383387532e-05
aF0.00031964073836592
aa(lp905
F0.00032827519890972641
aF0.0001696689195116452
aa(lp906
F-0.0001377634813219675
aF0.00035874473857118802
aa(lp907
F0.00028805494839079238
aF0.0002593489429029705
aa(lp908
F-2.6855286161905911e-05
aF9.905747759154232e-05
aa(lp909
F0.00016417739501672909
aF0.00010366832449051209
aa(lp910
F-4.7939666378837842e-05
aF6.7694311619237446e-05
aa(lp911
F0.0001050547427076422
aF7.9098792810066831e-05
aa(lp912
F-2.208269737993818e-05
aF4.3493944050835903e-05
aa(lp913
F6.9835442171969908e-05
aF4.7820283979042172e-05
aa(lp914
F-1.7881980712446122e-05
aF2.9735528325515629e-05
aa(lp915
F4.8736015053858512e-05
aF3.4789781227808493e-05
aa(lp916
F-1.168297479138547e-05
aF2.1123780292624409e-05
aa(lp917
F3.4785064858322563e-05
aF2.4456403542268999e-05
aa(lp918
F-8.8941978865567095e-06
aF1.5011313173138131e-05
aa(lp919
F2.5706747572219749e-05
aF1.7960795394887999e-05
aa(lp920
F1.1055899793444009e-05
aF3.6308178220479687e-05
aa(lp921
F1.4692283506628601
aF0.38257246313014548
aa(lp922
F-0.4032967034723427
aF-1.46367530719942
aa(lp923
F0.27759396962860799
aF-0.110503050215307
aa(lp924
F0.025776360573287249
aF-0.18121263359349271
aa(lp925
F-0.063559461945530416
aF0.020826437353140829
aa(lp926
F0.018935262111032362
aF0.01151796032630492
aa(lp927
F-0.00032806133604745819
aF-0.011941901976437521
aa(lp928
F-0.0025875572259193009
aF-0.0010814851329203901
aa(lp929
F-0.00072218797015999314
aF0.00093964485075575394
aa(lp930
F0.00077452920056098051
aF-0.00083379714495998569
aa(lp931
F-0.00073530208455086724
aF-0.00039367016138003308
aa(lp932
F0.00025607100414734568
aF-0.00016490458462407881
aa(lp933
F-0.00027017692955342432
aF-0.0002194387523894864
aa(lp934
F7.1799112259393616e-05
aF-0.0001247856094171787
aa(lp935
F-0.00014941807850299421
aF-8.3342653285162216e-05
aa(lp936
F6.8452957624032251e-05
aF-8.621906806483004e-05
aa(lp937
F-0.0001041008439881148
aF-6.5747701964333563e-05
aa(lp938
F3.9647878869730757e-05
aF-4.8684185582218223e-05
aa(lp939
F-6.4468007111875142e-05
aF-4.3096552101678017e-05
aa(lp940
F2.6277970706683331e-05
aF-3.6078713755615527e-05
aa(lp941
F-4.6065502277774142e-05
aF-2.8986176749973541e-05
aa(lp942
F1.934299114991073e-05
aF-2.5109032688519151e-05
aa(lp943
F-3.2968601181168622e-05
aF-2.1243123088120212e-05
aa(lp944
F1.378947494706795e-05
aF-1.8068658104794829e-05
aa(lp945
F-2.4020605289915009e-05
aF-1.5504335881807999e-05
aa(lp946
F1.576163989192025e-05
aF-1.279398759009042e-05
aa(lp947
F-1.0954584640805289
aF-0.3472704181180104
aasS'viewfile'
p948
g13
sba(imin_path.mod_minpath
minpath
p949
(dp950
g3
F14.746864276878741
sS'symdata'
p951
S'!!!======================================================================\n!!! generated configuration file\n!!!======================================================================\n0 !! action_type\n4 !! NOB\n2 !! dim\n1  !! sizekerT\n1 !! perm j=1\n2 !! perm j=2\n3 !! perm j=3\n4 !! perm j=4\n1.0D0 !! matrix (j,k)=(1,1)\n0.0D0 !! matrix (j,k)=(1,2)\n0.0D0 !! matrix (j,k)=(2,1)\n1.0D0 !! matrix (j,k)=(2,2)\n6  !! cyclic_order\n1 !! cyclic_perm j=1\n2 !! cyclic_perm j=2\n4 !! cyclic_perm j=3\n3 !! cyclic_perm j=4\n-0.5D0 !! cyclic_matrix (j,k)=(1,1)\n-0.8660254037844386D0  !!! imag= 5.8286708792820718e-16 !! cyclic_matrix (j,k)=(1,2)\n0.8660254037844386D0  !!! imag= -5.8286708792820718e-16 !! cyclic_matrix (j,k)=(2,1)\n-0.5D0 !! cyclic_matrix (j,k)=(2,2)\n1 !! cyclic_perm j=1\n2 !! cyclic_perm j=2\n3 !! cyclic_perm j=3\n4 !! cyclic_perm j=4\n-0.5D0 !! cyclic_matrix (j,k)=(1,1)\n0.8660254037844386D0  !!! imag= -5.8286708792820718e-16 !! cyclic_matrix (j,k)=(1,2)\n-0.8660254037844386D0  !!! imag= 5.8286708792820718e-16 !! cyclic_matrix (j,k)=(2,1)\n-0.5D0 !! cyclic_matrix (j,k)=(2,2)\n1 !! cyclic_perm j=1\n2 !! cyclic_perm j=2\n4 !! cyclic_perm j=3\n3 !! cyclic_perm j=4\n1.0D0 !! cyclic_matrix (j,k)=(1,1)\n0.0D0 !! cyclic_matrix (j,k)=(1,2)\n0.0D0 !! cyclic_matrix (j,k)=(2,1)\n1.0D0 !! cyclic_matrix (j,k)=(2,2)\n1 !! cyclic_perm j=1\n2 !! cyclic_perm j=2\n3 !! cyclic_perm j=3\n4 !! cyclic_perm j=4\n-0.5D0 !! cyclic_matrix (j,k)=(1,1)\n-0.8660254037844386D0  !!! imag= 5.8286708792820718e-16 !! cyclic_matrix (j,k)=(1,2)\n0.8660254037844386D0  !!! imag= -5.8286708792820718e-16 !! cyclic_matrix (j,k)=(2,1)\n-0.5D0 !! cyclic_matrix (j,k)=(2,2)\n1 !! cyclic_perm j=1\n2 !! cyclic_perm j=2\n4 !! cyclic_perm j=3\n3 !! cyclic_perm j=4\n-0.5D0 !! cyclic_matrix (j,k)=(1,1)\n0.8660254037844386D0  !!! imag= -5.8286708792820718e-16 !! cyclic_matrix (j,k)=(1,2)\n-0.8660254037844386D0  !!! imag= 5.8286708792820718e-16 !! cyclic_matrix (j,k)=(2,1)\n-0.5D0 !! cyclic_matrix (j,k)=(2,2)\n1 !! cyclic_perm j=1\n2 !! cyclic_perm j=2\n3 !! cyclic_perm j=3\n4 !! cyclic_perm j=4\n1.0D0 !! cyclic_matrix (j,k)=(1,1)\n0.0D0 !! cyclic_matrix (j,k)=(1,2)\n0.0D0 !! cyclic_matrix (j,k)=(2,1)\n1.0D0 !! cyclic_matrix (j,k)=(2,2)\n'
p952
sS'TODOLIST'
p953
(lp954
S'new()'
p955
aS'relax(200)'
p956
asS'NOB'
p957
I4
sS'withcoll'
p958
I0
sS'todo'
p959
g13
sS'omega'
p960
(lp961
F0.0
aF0.0
aF0.0
asS'massdata'
p962
S' 1.000000000000000000000000e+00 !! m(1)\n 1.000000000000000000000000e+00 !! m(2)\n 1.000000000000000000000000e+00 !! m(3)\n 1.000000000000000000000000e+00 !! m(4)\n'
p963
sS'dim'
p964
I2
sS'gammadata'
p965
S' 4 2 24  !! NOB,dim,steps\n 0.000000000000000E+00 0.000000000000000E+00 0.000000000000000E+00  !! omega\n 1.000000000000000  !! ALPHA\n 1.000000000000000  !! m( 1 )\n 1.000000000000000  !! m( 2 )\n 1.000000000000000  !! m( 3 )\n 1.000000000000000  !! m( 4 )\n -0.4278182315930188 0.3018338122152748\n -0.1412843682387912 -0.1323646884179837\n -3.407907074855943E-02 -6.885001602676688E-02\n -5.887372700311189E-02 5.276782453025319E-04\n -1.077448917611762E-02 9.766815849935530E-03\n -1.215067457336283E-02 6.070498204757413E-03\n -9.764989349559938E-04 6.278625241433036E-03\n -2.604459245084664E-03 2.804701779565027E-03\n 6.713270335680296E-04 2.741276632200133E-03\n -6.147600681497101E-04 9.996928571989958E-04\n 5.825679074475017E-04 1.157618261315989E-03\n -2.390038049591980E-04 3.251317092389239E-04\n 3.305253508964919E-04 5.420439640473583E-04\n -1.615210685472880E-04 1.140717177416199E-04\n 1.731571782239421E-04 3.010293224633581E-04\n -1.242174480805000E-04 5.378259996664542E-05\n 9.541524775889994E-05 1.931784362811714E-04\n -9.266588255631193E-05 3.462952760597670E-05\n 5.839807873384614E-05 1.342498012625206E-04\n -6.718588477312389E-05 2.539218505327734E-05\n 3.925709787052029E-05 9.667858731157285E-05\n -4.855396916909893E-05 1.894724759394547E-05\n 2.791810605874689E-05 7.083945474846476E-05\n -3.554430819037143E-05 1.400688344838563E-05\n 2.045839582550724E-05 5.253010971533714E-05\n -4.748663330302128E-02 -0.5214183628693263\n -1.596873073198436 0.8733431044384676\n -0.7661186916198792 -0.4424671404106072\n -7.332103557461433E-02 9.976566675404852E-02\n -2.359333948342412E-02 -9.820794021087154E-03\n -8.594675557112574E-03 1.355114189009598E-02\n -4.346490454668284E-03 -2.007275963914590E-03\n -2.296767385389864E-03 3.950753097511389E-03\n -1.436359130692386E-03 -7.824122086259114E-04\n -9.327448015376827E-04 1.617749932983269E-03\n -6.506024266778046E-04 -3.740294403513506E-04\n -4.692330714397147E-04 8.114863120355226E-04\n -3.486240625161759E-04 -2.027366952517271E-04\n -2.673252816772827E-04 4.609176775619891E-04\n -2.070475972953956E-04 -1.206037195844133E-04\n -1.652818675279661E-04 2.842922335249301E-04\n -1.318445678148467E-04 -7.682404643912389E-05\n -1.082825888000689E-04 1.859347036686308E-04\n -8.828549320213909E-05 -5.146708556338746E-05\n -7.404913982681730E-05 1.270141071130164E-04\n -6.138725167479991E-05 -3.580775612957096E-05\n -5.231917579788374E-05 8.968394580148760E-05\n -4.393227759933588E-05 -2.563973080569647E-05\n -3.791099456726399E-05 6.495843849223345E-05\n -3.214443836954683E-05 -1.877666630474908E-05\n -2.798390250290366E-05 4.797855492548171E-05\n 4.209922193553872E-02 -1.819604200228406\n -1.099740241180402E-02 -0.5090752847557414\n 0.2984054718296760 0.6436941697101747\n 0.1407957841182139 6.766592613231204E-03\n 4.908657366687219E-02 8.766200300576177E-04\n 2.408810676357948E-02 -1.585862607004171E-02\n 9.255420755239774E-03 -7.311055152505685E-03\n 4.699744789482319E-03 -7.632487361850626E-03\n 1.520262702755348E-03 -3.438080334101409E-03\n 8.481698625728146E-04 -3.172355017069979E-03\n 1.291541018484488E-04 -1.335760997490464E-03\n 1.724575631872755E-04 -1.337507258683878E-03\n -1.321727504717367E-05 -5.196942195764684E-04\n 9.305906252490056E-05 -6.324605656876335E-04\n 1.576983872356077E-05 -2.347184778018624E-04\n 8.528925841677095E-05 -3.525580659226582E-04\n 3.336393667741555E-05 -1.326545153522906E-04\n 7.220102684046825E-05 -2.251802134342947E-04\n 3.281020902897080E-05 -8.835780365783674E-05\n 5.538027718209894E-05 -1.553546483079410E-04\n 2.607576873538521E-05 -6.319791075302950E-05\n 4.069743648555594E-05 -1.112078685841563E-04\n 1.940124273968474E-05 -4.624443993611385E-05\n 2.978873304902707E-05 -8.115836194975601E-05\n 1.434409930592059E-05 -3.411853154859298E-05\n 2.205538715398291E-05 -6.001537448419698E-05\n -0.4409834188756898 2.096008950584126\n 2.035688707203260 -0.6661016318980000\n 0.6089975880289935 -6.886234088158361E-02\n -3.339567779504038E-02 -3.768224334051329E-02\n 3.338049281966371E-02 8.416495745727115E-03\n -4.718942030349255E-03 -7.459331669989792E-03\n 7.241744272791673E-03 3.247832911662918E-03\n -1.426478469136461E-03 -2.596890977093785E-03\n 2.520555673021688E-03 1.415790763162283E-03\n -5.867520946031407E-04 -1.186671548113430E-03\n 1.136208392979066E-03 7.100975806428218E-04\n -2.857923991950728E-04 -6.315973146676160E-04\n 6.008451425225493E-04 3.972992055892716E-04\n -1.562591317441102E-04 -3.705010759217087E-04\n 3.527988271191237E-04 2.412504796446627E-04\n -9.316456911274713E-05 -2.327634900656282E-04\n 2.226980792179307E-04 1.556959618247691E-04\n -5.933368579930445E-05 -1.539329265155039E-04\n 1.481411667294802E-04 1.051953616152497E-04\n -3.972921608912713E-05 -1.059092600675959E-04\n 1.024973677125392E-04 7.361348182933353E-05\n -2.763535855819228E-05 -7.515466452890501E-05\n 7.308500402873619E-05 5.293692314786487E-05\n -1.979584454051692E-05 -5.463953129094214E-05\n 5.334464725399637E-05 3.888831440495514E-05\n -1.452988047658628E-05 -4.049329015662221E-05\n 0.4463708302431719 0.2450136125136080\n'
p966
sS'log'
p967
g13
sS'SPMETHOD'
p968
I1
sg23
F0.00051189005546988821
sS'masses'
p969
(lp970
F1.0
aF1.0
aF1.0
aF1.0
asS'symfilename'
p971
g13
sS'invalid'
p972
I0
sS'steps'
p973
I24
sS'ALPHA'
p974
F1.0
sS'confdata'
p975
S'!! CONFIG STRING\n&CONFIG\nCOMMAND=howsol\nSPMETHOD=3\nALG=0\nsteps=24\nALPHA=1.000000000000000000000000e+00\n/\n0.000000000000000000000000e+00 !! omega(1)\n0.000000000000000000000000e+00 !! omega(2)\n0.000000000000000000000000e+00 !! omega(3)\n'
p976
sS'gamma'
p977
(lp978
(lp979
F-0.42781823159301879
aF0.30183381221527478
aa(lp980
F-0.1412843682387912
aF-0.13236468841798371
aa(lp981
F-0.034079070748559433
aF-0.06885001602676688
aa(lp982
F-0.058873727003111893
aF0.00052767824530253193
aa(lp983
F-0.01077448917611762
aF0.0097668158499355298
aa(lp984
F-0.01215067457336283
aF0.006070498204757413
aa(lp985
F-0.00097649893495599382
aF0.0062786252414330362
aa(lp986
F-0.0026044592450846639
aF0.0028047017795650268
aa(lp987
F0.00067132703356802964
aF0.0027412766322001329
aa(lp988
F-0.00061476006814971005
aF0.00099969285719899575
aa(lp989
F0.00058256790744750167
aF0.001157618261315989
aa(lp990
F-0.00023900380495919799
aF0.00032513170923892393
aa(lp991
F0.0003305253508964919
aF0.0005420439640473583
aa(lp992
F-0.00016152106854728799
aF0.00011407171774161989
aa(lp993
F0.0001731571782239421
aF0.00030102932246335812
aa(lp994
F-0.00012421744808050001
aF5.3782599966645417e-05
aa(lp995
F9.5415247758899938e-05
aF0.00019317843628117141
aa(lp996
F-9.2665882556311935e-05
aF3.46295276059767e-05
aa(lp997
F5.8398078733846143e-05
aF0.0001342498012625206
aa(lp998
F-6.7185884773123894e-05
aF2.5392185053277339e-05
aa(lp999
F3.9257097870520289e-05
aF9.6678587311572854e-05
aa(lp1000
F-4.8553969169098932e-05
aF1.8947247593945472e-05
aa(lp1001
F2.7918106058746891e-05
aF7.0839454748464759e-05
aa(lp1002
F-3.5544308190371427e-05
aF1.400688344838563e-05
aa(lp1003
F2.0458395825507242e-05
aF5.2530109715337137e-05
aa(lp1004
F-0.047486633303021282
aF-0.5214183628693263
aa(lp1005
F-1.596873073198436
aF0.87334310443846763
aa(lp1006
F-0.76611869161987922
aF-0.4424671404106072
aa(lp1007
F-0.073321035574614335
aF0.099765666754048521
aa(lp1008
F-0.023593339483424122
aF-0.0098207940210871536
aa(lp1009
F-0.0085946755571125744
aF0.01355114189009598
aa(lp1010
F-0.0043464904546682837
aF-0.0020072759639145898
aa(lp1011
F-0.002296767385389864
aF0.0039507530975113891
aa(lp1012
F-0.0014363591306923861
aF-0.00078241220862591138
aa(lp1013
F-0.00093274480153768269
aF0.0016177499329832689
aa(lp1014
F-0.00065060242667780465
aF-0.0003740294403513506
aa(lp1015
F-0.00046923307143971471
aF0.00081148631203552257
aa(lp1016
F-0.0003486240625161759
aF-0.00020273669525172711
aa(lp1017
F-0.00026732528167728269
aF0.00046091767756198908
aa(lp1018
F-0.0002070475972953956
aF-0.00012060371958441331
aa(lp1019
F-0.00016528186752796611
aF0.00028429223352493009
aa(lp1020
F-0.0001318445678148467
aF-7.682404643912389e-05
aa(lp1021
F-0.0001082825888000689
aF0.00018593470366863081
aa(lp1022
F-8.8285493202139095e-05
aF-5.1467085563387457e-05
aa(lp1023
F-7.4049139826817302e-05
aF0.0001270141071130164
aa(lp1024
F-6.1387251674799911e-05
aF-3.5807756129570961e-05
aa(lp1025
F-5.2319175797883742e-05
aF8.96839458014876e-05
aa(lp1026
F-4.3932277599335878e-05
aF-2.5639730805696469e-05
aa(lp1027
F-3.7910994567263989e-05
aF6.4958438492233446e-05
aa(lp1028
F-3.2144438369546828e-05
aF-1.8776666304749081e-05
aa(lp1029
F-2.7983902502903661e-05
aF4.7978554925481713e-05
aa(lp1030
F0.042099221935538722
aF-1.8196042002284061
aa(lp1031
F-0.01099740241180402
aF-0.50907528475574138
aa(lp1032
F0.29840547182967597
aF0.64369416971017468
aa(lp1033
F0.14079578411821389
aF0.0067665926132312038
aa(lp1034
F0.049086573666872191
aF0.00087662003005761768
aa(lp1035
F0.024088106763579479
aF-0.015858626070041709
aa(lp1036
F0.0092554207552397738
aF-0.0073110551525056846
aa(lp1037
F0.0046997447894823194
aF-0.0076324873618506262
aa(lp1038
F0.0015202627027553479
aF-0.0034380803341014089
aa(lp1039
F0.00084816986257281457
aF-0.0031723550170699791
aa(lp1040
F0.00012915410184844879
aF-0.001335760997490464
aa(lp1041
F0.00017245756318727551
aF-0.0013375072586838781
aa(lp1042
F-1.321727504717367e-05
aF-0.00051969421957646835
aa(lp1043
F9.3059062524900558e-05
aF-0.00063246056568763351
aa(lp1044
F1.5769838723560772e-05
aF-0.00023471847780186239
aa(lp1045
F8.5289258416770949e-05
aF-0.00035255806592265822
aa(lp1046
F3.3363936677415548e-05
aF-0.00013265451535229061
aa(lp1047
F7.2201026840468252e-05
aF-0.00022518021343429469
aa(lp1048
F3.2810209028970801e-05
aF-8.8357803657836739e-05
aa(lp1049
F5.5380277182098937e-05
aF-0.00015535464830794101
aa(lp1050
F2.607576873538521e-05
aF-6.3197910753029496e-05
aa(lp1051
F4.0697436485555938e-05
aF-0.00011120786858415629
aa(lp1052
F1.940124273968474e-05
aF-4.6244439936113851e-05
aa(lp1053
F2.9788733049027068e-05
aF-8.1158361949756013e-05
aa(lp1054
F1.434409930592059e-05
aF-3.4118531548592977e-05
aa(lp1055
F2.2055387153982909e-05
aF-6.0015374484196982e-05
aa(lp1056
F-0.44098341887568981
aF2.096008950584126
aa(lp1057
F2.0356887072032599
aF-0.66610163189799998
aa(lp1058
F0.60899758802899351
aF-0.068862340881583606
aa(lp1059
F-0.033395677795040379
aF-0.037682243340513288
aa(lp1060
F0.03338049281966371
aF0.008416495745727115
aa(lp1061
F-0.0047189420303492546
aF-0.0074593316699897924
aa(lp1062
F0.0072417442727916734
aF0.0032478329116629179
aa(lp1063
F-0.0014264784691364609
aF-0.0025968909770937849
aa(lp1064
F0.0025205556730216881
aF0.001415790763162283
aa(lp1065
F-0.00058675209460314071
aF-0.0011866715481134299
aa(lp1066
F0.0011362083929790661
aF0.00071009758064282183
aa(lp1067
F-0.00028579239919507282
aF-0.00063159731466761598
aa(lp1068
F0.00060084514252254934
aF0.00039729920558927162
aa(lp1069
F-0.00015625913174411021
aF-0.00037050107592170872
aa(lp1070
F0.00035279882711912371
aF0.0002412504796446627
aa(lp1071
F-9.3164569112747127e-05
aF-0.0002327634900656282
aa(lp1072
F0.00022269807921793071
aF0.0001556959618247691
aa(lp1073
F-5.9333685799304453e-05
aF-0.0001539329265155039
aa(lp1074
F0.0001481411667294802
aF0.00010519536161524971
aa(lp1075
F-3.9729216089127127e-05
aF-0.0001059092600675959
aa(lp1076
F0.0001024973677125392
aF7.3613481829333527e-05
aa(lp1077
F-2.7635358558192281e-05
aF-7.5154664528905013e-05
aa(lp1078
F7.3085004028736189e-05
aF5.2936923147864869e-05
aa(lp1079
F-1.9795844540516919e-05
aF-5.4639531290942139e-05
aa(lp1080
F5.3344647253996368e-05
aF3.8888314404955139e-05
aa(lp1081
F-1.4529880476586279e-05
aF-4.0493290156622213e-05
aa(lp1082
F0.44637083024317192
aF0.24501361251360801
aasS'viewfile'
p1083
g13
sba(imin_path.mod_minpath
minpath
p1084
(dp1085
g3
F14.985094845639781
sS'symdata'
p1086
S'!!!======================================================================\n!!! generated configuration file\n!!!======================================================================\n0 !! action_type\n4 !! NOB\n2 !! dim\n1  !! sizekerT\n1 !! perm j=1\n2 !! perm j=2\n3 !! perm j=3\n4 !! perm j=4\n1.0D0 !! matrix (j,k)=(1,1)\n0.0D0 !! matrix (j,k)=(1,2)\n0.0D0 !! matrix (j,k)=(2,1)\n1.0D0 !! matrix (j,k)=(2,2)\n6  !! cyclic_order\n1 !! cyclic_perm j=1\n2 !! cyclic_perm j=2\n4 !! cyclic_perm j=3\n3 !! cyclic_perm j=4\n-0.5D0 !! cyclic_matrix (j,k)=(1,1)\n-0.8660254037844386D0  !!! imag= 5.8286708792820718e-16 !! cyclic_matrix (j,k)=(1,2)\n0.8660254037844386D0  !!! imag= -5.8286708792820718e-16 !! cyclic_matrix (j,k)=(2,1)\n-0.5D0 !! cyclic_matrix (j,k)=(2,2)\n1 !! cyclic_perm j=1\n2 !! cyclic_perm j=2\n3 !! cyclic_perm j=3\n4 !! cyclic_perm j=4\n-0.5D0 !! cyclic_matrix (j,k)=(1,1)\n0.8660254037844386D0  !!! imag= -5.8286708792820718e-16 !! cyclic_matrix (j,k)=(1,2)\n-0.8660254037844386D0  !!! imag= 5.8286708792820718e-16 !! cyclic_matrix (j,k)=(2,1)\n-0.5D0 !! cyclic_matrix (j,k)=(2,2)\n1 !! cyclic_perm j=1\n2 !! cyclic_perm j=2\n4 !! cyclic_perm j=3\n3 !! cyclic_perm j=4\n1.0D0 !! cyclic_matrix (j,k)=(1,1)\n0.0D0 !! cyclic_matrix (j,k)=(1,2)\n0.0D0 !! cyclic_matrix (j,k)=(2,1)\n1.0D0 !! cyclic_matrix (j,k)=(2,2)\n1 !! cyclic_perm j=1\n2 !! cyclic_perm j=2\n3 !! cyclic_perm j=3\n4 !! cyclic_perm j=4\n-0.5D0 !! cyclic_matrix (j,k)=(1,1)\n-0.8660254037844386D0  !!! imag= 5.8286708792820718e-16 !! cyclic_matrix (j,k)=(1,2)\n0.8660254037844386D0  !!! imag= -5.8286708792820718e-16 !! cyclic_matrix (j,k)=(2,1)\n-0.5D0 !! cyclic_matrix (j,k)=(2,2)\n1 !! cyclic_perm j=1\n2 !! cyclic_perm j=2\n4 !! cyclic_perm j=3\n3 !! cyclic_perm j=4\n-0.5D0 !! cyclic_matrix (j,k)=(1,1)\n0.8660254037844386D0  !!! imag= -5.8286708792820718e-16 !! cyclic_matrix (j,k)=(1,2)\n-0.8660254037844386D0  !!! imag= 5.8286708792820718e-16 !! cyclic_matrix (j,k)=(2,1)\n-0.5D0 !! cyclic_matrix (j,k)=(2,2)\n1 !! cyclic_perm j=1\n2 !! cyclic_perm j=2\n3 !! cyclic_perm j=3\n4 !! cyclic_perm j=4\n1.0D0 !! cyclic_matrix (j,k)=(1,1)\n0.0D0 !! cyclic_matrix (j,k)=(1,2)\n0.0D0 !! cyclic_matrix (j,k)=(2,1)\n1.0D0 !! cyclic_matrix (j,k)=(2,2)\n'
p1087
sS'TODOLIST'
p1088
(lp1089
S'new()'
p1090
aS'relax(200)'
p1091
asS'NOB'
p1092
I4
sS'withcoll'
p1093
I0
sS'todo'
p1094
g13
sS'omega'
p1095
(lp1096
F0.0
aF0.0
aF0.0
asS'massdata'
p1097
S' 1.000000000000000000000000e+00 !! m(1)\n 1.000000000000000000000000e+00 !! m(2)\n 1.000000000000000000000000e+00 !! m(3)\n 1.000000000000000000000000e+00 !! m(4)\n'
p1098
sS'dim'
p1099
I2
sS'gammadata'
p1100
S' 4 2 24  !! NOB,dim,steps\n 0.000000000000000E+00 0.000000000000000E+00 0.000000000000000E+00  !! omega\n 1.000000000000000  !! ALPHA\n 1.000000000000000  !! m( 1 )\n 1.000000000000000  !! m( 2 )\n 1.000000000000000  !! m( 3 )\n 1.000000000000000  !! m( 4 )\n -0.2451833225833475 5.516604023619465E-02\n 9.773385867982931E-02 0.2422672717192738\n 0.4023906575314893 -0.1816882102932622\n -8.778503241525781E-02 -0.2209722393016603\n -4.055055203272628E-02 -2.128967445022711E-02\n -3.355608323049575E-02 -3.268308026414790E-02\n -1.792841163308068E-02 4.493778989588915E-03\n -1.309578505549130E-02 -6.881315439102753E-03\n -9.402253466403693E-03 5.311164976220611E-03\n -5.079174555495225E-03 -2.610629260566266E-03\n -3.848693175340256E-03 3.209934274818138E-03\n -2.047362207031389E-03 -7.876687144839495E-04\n -1.849309229365437E-03 2.077002268551457E-03\n -1.609929191607011E-03 -6.769694218415542E-04\n -7.910279017098593E-04 2.239896187632234E-03\n -8.306427776491668E-04 -2.086117072869001E-04\n -6.893883145437443E-04 4.847866937509743E-04\n 2.706711499527031E-04 -2.195984760540856E-04\n -3.431291320613039E-04 3.712545757749014E-04\n -6.544411170768816E-04 -3.929738636649360E-04\n -2.437376556446297E-04 2.243898983180261E-04\n -9.000303371366550E-05 -2.451263318027919E-04\n -2.242134043506172E-04 2.531952308969763E-04\n 6.410762814128106E-05 -2.169581706364526E-04\n 1.069553372992351E-04 3.662391637140883E-05\n 7.481646902093075E-02 -0.2399180060595532\n 0.2663404692029943 -6.893594758786925E-02\n -0.1167967024137191 -0.2677285407476795\n -0.3938178243736346 0.1743606380089462\n 8.198984081240063E-02 0.2272861755454165\n 4.052150132620880E-02 1.754556630093340E-02\n 3.158891136272768E-02 3.001016408282708E-02\n 1.828844314153755E-02 -5.410748602828752E-03\n 1.218268932021577E-02 6.726044711886647E-03\n 7.286464297414974E-03 -2.741231167256025E-03\n 5.346129112660414E-03 2.533671989787933E-03\n 2.944640932770193E-03 -1.971006979091444E-03\n 1.573982428792420E-03 -4.003942137744965E-04\n 2.518828282914679E-03 -7.459844134077714E-04\n 1.106511446426133E-03 4.224600268467743E-04\n 9.554784714961434E-04 -2.448639141091280E-03\n 2.320325676681036E-04 4.824964343456313E-04\n 9.528320943196361E-04 -9.584709287287357E-04\n -5.895200706262926E-04 -5.889747754400480E-05\n 1.510338252888599E-04 -2.461617714696884E-04\n 2.258000619743544E-04 2.800300334981354E-04\n 2.382359696498082E-04 8.396114573872016E-06\n 1.495477981740059E-04 1.451355309656718E-04\n 2.433976906059754E-04 -2.529275446167094E-04\n 4.312228366563616E-05 1.353926125659821E-04\n -1.498790765723222E-04 7.077500333296793E-06\n -7.346995275645440E-02 0.2651255861795949\n 2.366710259431869 -1.345735328442323\n 0.1822273407116581 -0.2908647004374183\n 1.730118704398009E-02 1.622653632532689E-02\n 1.101318114880134E-02 -1.548651384294630E-02\n 2.690430756856710E-03 5.087838450861248E-04\n 5.265419499010715E-03 -2.919968136337325E-03\n 3.989974293250320E-04 9.604942858021381E-04\n 1.182365440762723E-03 -1.365553278306342E-03\n 1.127811390463834E-03 -7.625090302202375E-04\n -3.989177986398751E-04 -3.887627356394807E-04\n 2.279767885526862E-06 1.029912627712459E-04\n 1.930627548774599E-04 3.764536287179515E-04\n 7.816896248140359E-05 -8.614524347447632E-04\n 9.881682093099142E-05 -1.752474349819566E-04\n -3.094256181684213E-04 -5.825651400886978E-05\n 6.661011879100075E-04 -1.541907468896528E-04\n -2.894037344954026E-05 -7.041650228831187E-05\n -2.104243522191296E-04 5.380807109626204E-04\n 3.801658687787035E-04 9.435805483125337E-05\n -6.233432204889866E-05 -2.979051626496032E-04\n 1.390270188527526E-04 -9.873438037752424E-06\n -1.594391161589478E-05 3.286664706455070E-05\n 6.115130315715537E-05 1.322072938063357E-05\n 6.037937526827126E-05 -8.212028073716071E-05\n -1.014229301637038E-05 -2.152224566051263E-04\n 1.656763225020086E-02 -2.747706452406476\n -2.387867406051527 1.359505235793996\n -0.1631644969777675 0.3163259694658245\n -2.587402020183482E-02 -8.898964041011759E-03\n -5.217989545944324E-03 9.172577599190324E-03\n -2.661380050339446E-03 3.235324304208032E-03\n -3.298247631241757E-03 5.592884317658253E-03\n -7.590289377823467E-04 -4.352467256296677E-05\n -2.692697054870741E-04 1.520824005522448E-03\n 9.879777785247734E-04 -1.807424778744293E-03\n 1.319632414737981E-04 4.657200064176470E-04\n 9.017724746844813E-04 -1.341918558497968E-03\n 2.803170233614538E-04 8.116092995404667E-04\n -7.476880160306731E-04 -4.695654203989152E-04\n 4.046009242498830E-04 4.297568299767435E-04\n 1.449750483821510E-04 2.669994674678877E-04\n -6.749097792894260E-05 -1.196939801690854E-04\n -2.345034063263585E-04 5.441007372660456E-04\n 5.292732728927191E-04 -2.595847573645302E-04\n -1.880705620062595E-04 -2.194508591365218E-04\n 4.909753771513981E-04 4.108489928164594E-04\n -1.335253328579589E-04 -2.229125748541352E-04\n -4.360085284443524E-05 6.712415377257280E-05\n -8.033558941251354E-05 -1.348841566089359E-05\n -1.676092870751883E-04 1.636858388076451E-04\n 5.306603228945762E-05 1.715210399004172E-04\n -1.791414851469142E-02 2.722498872286437\n'
p1101
sS'log'
p1102
g13
sS'SPMETHOD'
p1103
I1
sg23
F1.633222463150569
sS'masses'
p1104
(lp1105
F1.0
aF1.0
aF1.0
aF1.0
asS'symfilename'
p1106
g13
sS'invalid'
p1107
I0
sS'steps'
p1108
I24
sS'ALPHA'
p1109
F1.0
sS'confdata'
p1110
S'!! CONFIG STRING\n&CONFIG\nCOMMAND=howsol\nSPMETHOD=3\nALG=0\nsteps=24\nALPHA=1.000000000000000000000000e+00\n/\n0.000000000000000000000000e+00 !! omega(1)\n0.000000000000000000000000e+00 !! omega(2)\n0.000000000000000000000000e+00 !! omega(3)\n'
p1111
sS'gamma'
p1112
(lp1113
(lp1114
F-0.24518332258334749
aF0.055166040236194647
aa(lp1115
F0.097733858679829311
aF0.24226727171927381
aa(lp1116
F0.40239065753148928
aF-0.18168821029326221
aa(lp1117
F-0.087785032415257813
aF-0.22097223930166029
aa(lp1118
F-0.040550552032726277
aF-0.021289674450227111
aa(lp1119
F-0.033556083230495748
aF-0.032683080264147901
aa(lp1120
F-0.01792841163308068
aF0.0044937789895889146
aa(lp1121
F-0.013095785055491299
aF-0.0068813154391027531
aa(lp1122
F-0.0094022534664036927
aF0.0053111649762206106
aa(lp1123
F-0.005079174555495225
aF-0.0026106292605662662
aa(lp1124
F-0.003848693175340256
aF0.0032099342748181381
aa(lp1125
F-0.002047362207031389
aF-0.00078766871448394948
aa(lp1126
F-0.001849309229365437
aF0.0020770022685514572
aa(lp1127
F-0.001609929191607011
aF-0.00067696942184155423
aa(lp1128
F-0.00079102790170985926
aF0.0022398961876322339
aa(lp1129
F-0.00083064277764916677
aF-0.00020861170728690009
aa(lp1130
F-0.00068938831454374433
aF0.00048478669375097427
aa(lp1131
F0.00027067114995270308
aF-0.0002195984760540856
aa(lp1132
F-0.00034312913206130391
aF0.0003712545757749014
aa(lp1133
F-0.00065444111707688157
aF-0.00039297386366493598
aa(lp1134
F-0.00024373765564462971
aF0.00022438989831802611
aa(lp1135
F-9.0003033713665498e-05
aF-0.00024512633180279192
aa(lp1136
F-0.00022421340435061719
aF0.00025319523089697629
aa(lp1137
F6.4107628141281056e-05
aF-0.00021695817063645259
aa(lp1138
F0.0001069553372992351
aF3.6623916371408827e-05
aa(lp1139
F0.074816469020930754
aF-0.23991800605955321
aa(lp1140
F0.26634046920299431
aF-0.068935947587869251
aa(lp1141
F-0.1167967024137191
aF-0.26772854074767949
aa(lp1142
F-0.39381782437363461
aF0.17436063800894619
aa(lp1143
F0.081989840812400627
aF0.2272861755454165
aa(lp1144
F0.040521501326208798
aF0.017545566300933398
aa(lp1145
F0.031588911362727679
aF0.030010164082827081
aa(lp1146
F0.01828844314153755
aF-0.0054107486028287521
aa(lp1147
F0.012182689320215771
aF0.0067260447118866473
aa(lp1148
F0.007286464297414974
aF-0.0027412311672560248
aa(lp1149
F0.0053461291126604138
aF0.002533671989787933
aa(lp1150
F0.0029446409327701928
aF-0.0019710069790914442
aa(lp1151
F0.00157398242879242
aF-0.00040039421377449652
aa(lp1152
F0.002518828282914679
aF-0.00074598441340777144
aa(lp1153
F0.0011065114464261329
aF0.00042246002684677431
aa(lp1154
F0.0009554784714961434
aF-0.00244863914109128
aa(lp1155
F0.00023203256766810359
aF0.0004824964343456313
aa(lp1156
F0.00095283209431963611
aF-0.00095847092872873574
aa(lp1157
F-0.00058952007062629264
aF-5.8897477544004803e-05
aa(lp1158
F0.00015103382528885989
aF-0.00024616177146968837
aa(lp1159
F0.0002258000619743544
aF0.00028003003349813538
aa(lp1160
F0.0002382359696498082
aF8.3961145738720155e-06
aa(lp1161
F0.0001495477981740059
aF0.00014513553096567181
aa(lp1162
F0.00024339769060597539
aF-0.00025292754461670938
aa(lp1163
F4.3122283665636158e-05
aF0.00013539261256598209
aa(lp1164
F-0.00014987907657232219
aF7.0775003332967934e-06
aa(lp1165
F-0.073469952756454404
aF0.26512558617959492
aa(lp1166
F2.3667102594318692
aF-1.345735328442323
aa(lp1167
F0.18222734071165811
aF-0.2908647004374183
aa(lp1168
F0.01730118704398009
aF0.01622653632532689
aa(lp1169
F0.01101318114880134
aF-0.0154865138429463
aa(lp1170
F0.0026904307568567098
aF0.00050878384508612484
aa(lp1171
F0.005265419499010715
aF-0.0029199681363373249
aa(lp1172
F0.00039899742932503202
aF0.00096049428580213814
aa(lp1173
F0.0011823654407627231
aF-0.001365553278306342
aa(lp1174
F0.0011278113904638341
aF-0.00076250903022023753
aa(lp1175
F-0.00039891779863987509
aF-0.00038876273563948072
aa(lp1176
F2.2797678855268622e-06
aF0.0001029912627712459
aa(lp1177
F0.00019306275487745989
aF0.00037645362871795152
aa(lp1178
F7.8168962481403592e-05
aF-0.00086145243474476316
aa(lp1179
F9.8816820930991423e-05
aF-0.00017524743498195661
aa(lp1180
F-0.00030942561816842129
aF-5.8256514008869782e-05
aa(lp1181
F0.00066610118791000754
aF-0.00015419074688965281
aa(lp1182
F-2.8940373449540261e-05
aF-7.0416502288311866e-05
aa(lp1183
F-0.00021042435221912961
aF0.0005380807109626204
aa(lp1184
F0.00038016586877870351
aF9.4358054831253368e-05
aa(lp1185
F-6.233432204889866e-05
aF-0.00029790516264960321
aa(lp1186
F0.00013902701885275259
aF-9.8734380377524245e-06
aa(lp1187
F-1.5943911615894781e-05
aF3.2866647064550697e-05
aa(lp1188
F6.1151303157155369e-05
aF1.322072938063357e-05
aa(lp1189
F6.0379375268271257e-05
aF-8.2120280737160711e-05
aa(lp1190
F-1.0142293016370381e-05
aF-0.00021522245660512629
aa(lp1191
F0.016567632250200859
aF-2.7477064524064758
aa(lp1192
F-2.387867406051527
aF1.3595052357939961
aa(lp1193
F-0.1631644969777675
aF0.31632596946582447
aa(lp1194
F-0.025874020201834821
aF-0.0088989640410117588
aa(lp1195
F-0.0052179895459443237
aF0.0091725775991903236
aa(lp1196
F-0.0026613800503394458
aF0.003235324304208032
aa(lp1197
F-0.003298247631241757
aF0.0055928843176582532
aa(lp1198
F-0.0007590289377823467
aF-4.3524672562966771e-05
aa(lp1199
F-0.00026926970548707407
aF0.001520824005522448
aa(lp1200
F0.00098797777852477342
aF-0.001807424778744293
aa(lp1201
F0.00013196324147379809
aF0.00046572000641764699
aa(lp1202
F0.0009017724746844813
aF-0.001341918558497968
aa(lp1203
F0.00028031702336145381
aF0.00081160929954046668
aa(lp1204
F-0.00074768801603067314
aF-0.00046956542039891519
aa(lp1205
F0.00040460092424988298
aF0.00042975682997674352
aa(lp1206
F0.000144975048382151
aF0.00026699946746788772
aa(lp1207
F-6.7490977928942597e-05
aF-0.0001196939801690854
aa(lp1208
F-0.00023450340632635849
aF0.00054410073726604558
aa(lp1209
F0.00052927327289271908
aF-0.00025958475736453018
aa(lp1210
F-0.00018807056200625949
aF-0.00021945085913652179
aa(lp1211
F0.00049097537715139805
aF0.00041084899281645942
aa(lp1212
F-0.00013352533285795889
aF-0.00022291257485413521
aa(lp1213
F-4.3600852844435239e-05
aF6.7124153772572803e-05
aa(lp1214
F-8.0335589412513543e-05
aF-1.348841566089359e-05
aa(lp1215
F-0.00016760928707518829
aF0.00016368583880764509
aa(lp1216
F5.3066032289457617e-05
aF0.0001715210399004172
aa(lp1217
F-0.017914148514691419
aF2.7224988722864372
aasS'viewfile'
p1218
g13
sba(imin_path.mod_minpath
minpath
p1219
(dp1220
g3
F15.35880727562505
sS'symdata'
p1221
S'!!!======================================================================\n!!! generated configuration file\n!!!======================================================================\n0 !! action_type\n4 !! NOB\n2 !! dim\n1  !! sizekerT\n1 !! perm j=1\n2 !! perm j=2\n3 !! perm j=3\n4 !! perm j=4\n1.0D0 !! matrix (j,k)=(1,1)\n0.0D0 !! matrix (j,k)=(1,2)\n0.0D0 !! matrix (j,k)=(2,1)\n1.0D0 !! matrix (j,k)=(2,2)\n6  !! cyclic_order\n1 !! cyclic_perm j=1\n2 !! cyclic_perm j=2\n4 !! cyclic_perm j=3\n3 !! cyclic_perm j=4\n-0.5D0 !! cyclic_matrix (j,k)=(1,1)\n-0.8660254037844386D0  !!! imag= 5.8286708792820718e-16 !! cyclic_matrix (j,k)=(1,2)\n0.8660254037844386D0  !!! imag= -5.8286708792820718e-16 !! cyclic_matrix (j,k)=(2,1)\n-0.5D0 !! cyclic_matrix (j,k)=(2,2)\n1 !! cyclic_perm j=1\n2 !! cyclic_perm j=2\n3 !! cyclic_perm j=3\n4 !! cyclic_perm j=4\n-0.5D0 !! cyclic_matrix (j,k)=(1,1)\n0.8660254037844386D0  !!! imag= -5.8286708792820718e-16 !! cyclic_matrix (j,k)=(1,2)\n-0.8660254037844386D0  !!! imag= 5.8286708792820718e-16 !! cyclic_matrix (j,k)=(2,1)\n-0.5D0 !! cyclic_matrix (j,k)=(2,2)\n1 !! cyclic_perm j=1\n2 !! cyclic_perm j=2\n4 !! cyclic_perm j=3\n3 !! cyclic_perm j=4\n1.0D0 !! cyclic_matrix (j,k)=(1,1)\n0.0D0 !! cyclic_matrix (j,k)=(1,2)\n0.0D0 !! cyclic_matrix (j,k)=(2,1)\n1.0D0 !! cyclic_matrix (j,k)=(2,2)\n1 !! cyclic_perm j=1\n2 !! cyclic_perm j=2\n3 !! cyclic_perm j=3\n4 !! cyclic_perm j=4\n-0.5D0 !! cyclic_matrix (j,k)=(1,1)\n-0.8660254037844386D0  !!! imag= 5.8286708792820718e-16 !! cyclic_matrix (j,k)=(1,2)\n0.8660254037844386D0  !!! imag= -5.8286708792820718e-16 !! cyclic_matrix (j,k)=(2,1)\n-0.5D0 !! cyclic_matrix (j,k)=(2,2)\n1 !! cyclic_perm j=1\n2 !! cyclic_perm j=2\n4 !! cyclic_perm j=3\n3 !! cyclic_perm j=4\n-0.5D0 !! cyclic_matrix (j,k)=(1,1)\n0.8660254037844386D0  !!! imag= -5.8286708792820718e-16 !! cyclic_matrix (j,k)=(1,2)\n-0.8660254037844386D0  !!! imag= 5.8286708792820718e-16 !! cyclic_matrix (j,k)=(2,1)\n-0.5D0 !! cyclic_matrix (j,k)=(2,2)\n1 !! cyclic_perm j=1\n2 !! cyclic_perm j=2\n3 !! cyclic_perm j=3\n4 !! cyclic_perm j=4\n1.0D0 !! cyclic_matrix (j,k)=(1,1)\n0.0D0 !! cyclic_matrix (j,k)=(1,2)\n0.0D0 !! cyclic_matrix (j,k)=(2,1)\n1.0D0 !! cyclic_matrix (j,k)=(2,2)\n'
p1222
sS'TODOLIST'
p1223
(lp1224
S'new()'
p1225
aS'relax(200)'
p1226
asS'NOB'
p1227
I4
sS'withcoll'
p1228
I0
sS'todo'
p1229
g13
sS'omega'
p1230
(lp1231
F0.0
aF0.0
aF0.0
asS'massdata'
p1232
S' 1.000000000000000000000000e+00 !! m(1)\n 1.000000000000000000000000e+00 !! m(2)\n 1.000000000000000000000000e+00 !! m(3)\n 1.000000000000000000000000e+00 !! m(4)\n'
p1233
sS'dim'
p1234
I2
sS'gammadata'
p1235
S' 4 2 24  !! NOB,dim,steps\n 0.000000000000000E+00 0.000000000000000E+00 0.000000000000000E+00  !! omega\n 1.000000000000000  !! ALPHA\n 1.000000000000000  !! m( 1 )\n 1.000000000000000  !! m( 2 )\n 1.000000000000000  !! m( 3 )\n 1.000000000000000  !! m( 4 )\n -0.2069288371517231 6.940800712637740E-02\n 0.5191587094408949 0.9089972118839262\n -0.2203923937585897 0.1529161591780166\n -5.265902557111167E-02 -6.987303934708733E-02\n 1.425456019212845E-02 -2.112334850923815E-02\n 1.649158189137645E-02 1.173191775271759E-02\n -9.835953623303140E-03 1.252919261237019E-02\n -6.020236092563386E-03 -4.229622500185576E-03\n -1.938172764055085E-04 -2.325527829778878E-03\n 1.976361863195643E-03 1.625114421806573E-04\n -1.029376427550216E-03 2.050412446197650E-03\n -1.050623853742105E-03 -4.236338332915777E-04\n -4.126214842806279E-04 -2.185475058317701E-04\n 2.353859833540417E-04 -2.118113111245767E-04\n -2.071239411380599E-04 4.358129185131621E-04\n -2.238037352110191E-04 -7.957301037626700E-05\n -1.940395990555205E-04 3.780083192849761E-05\n 7.466032471790257E-07 -1.050790801371869E-04\n -8.578925439973323E-05 1.224473949345568E-04\n -6.155815129229442E-05 -3.655076275500379E-05\n -8.812747488451400E-05 4.542684205508006E-05\n -1.996563423646396E-05 -4.672019202781041E-05\n -4.813048016932180E-05 4.737046525035704E-05\n -2.350821783656410E-05 -2.259137699722876E-05\n -4.366930928371700E-05 2.911672611287559E-05\n 4.335532117836749E-02 -0.2139096333121544\n 1.668962182834513 0.2075857249996713\n -0.1531782675876550 -0.1114435601340373\n 0.1670044195515905 -0.1530106437733716\n 7.641678890179664E-02 0.1475794084059335\n -8.795231675150061E-03 1.801787638281506E-02\n -1.352384967420317E-02 5.514920621449787E-03\n 1.416428380889051E-02 -1.341056401867760E-02\n 6.217955766170000E-03 1.005238097336175E-02\n 2.979088367346852E-03 2.170680784886608E-03\n -2.138718713465156E-03 2.123581442725571E-03\n 2.674139829183964E-03 -2.026774573056070E-03\n 8.967078726920541E-04 1.479924312399714E-03\n 1.413267571819757E-03 2.789417864360634E-04\n -3.325897638803421E-04 7.589046747801739E-04\n 8.330053754672662E-04 -3.840457073882864E-04\n 1.665725192858561E-04 3.954037028329714E-04\n 6.011117671182696E-04 3.048161616222428E-07\n -3.330655406608152E-05 3.029412282074774E-04\n 3.600756794622604E-04 -9.645724551425421E-05\n 4.268589214010202E-05 1.687329498335645E-04\n 2.790844886453592E-04 -2.793790527212204E-05\n 8.804089174837063E-06 1.392376282708940E-04\n 1.847356779149027E-04 -3.565309204973249E-05\n 1.669812775756310E-05 8.960881213558201E-05\n 1.434840184890212E-04 -2.110032118966994E-05\n -1.014255602729982 1.341570785790382\n 0.9828821569856916 -7.110143224778653E-02\n 0.2396875480578042 -0.5510552556077384\n -1.379493034364687E-03 -7.373127576794902E-02\n 2.732870736899665E-03 -4.256516393103565E-02\n -5.420140911020666E-03 -1.245272516616219E-02\n -1.392448529643708E-03 -9.027337826726711E-03\n -2.263410910927743E-03 -3.509179605258830E-03\n -8.686774396669469E-04 -3.161530773018159E-03\n -1.178786693601705E-03 -1.330848022658995E-03\n -5.305469642210587E-04 -1.334392676349445E-03\n -6.504858110718964E-04 -5.839012496248464E-04\n -3.150315392665137E-04 -6.663275462377369E-04\n -3.884387861132670E-04 -2.960907704603385E-04\n -1.984980293066041E-04 -3.691754347783967E-04\n -2.451211370745471E-04 -1.640858560150935E-04\n -1.291025610518082E-04 -2.228206594508501E-04\n -1.619966035739245E-04 -9.897885168909729E-05\n -8.747004640350699E-05 -1.431355294164386E-04\n -1.111826309711968E-04 -6.328744866344535E-05\n -6.103382604296520E-05 -9.650817761247120E-05\n -7.862998022492573E-05 -4.256369958782888E-05\n -4.376735892297132E-05 -6.754406537374342E-05\n -5.699742176260795E-05 -2.973356523149062E-05\n -3.203990906869509E-05 -4.868099239966868E-05\n -4.207283656201843E-05 -2.145264573112128E-05\n 1.400765713472421 -2.014412785478174\n -2.444915502668482 -0.2058922998782631\n -0.6056679899110446 -0.2464983961421505\n 5.476746724136383E-02 7.382576036330413E-02\n -2.649063406758465E-02 -3.514120512781055E-02\n -3.918760595761350E-05 1.555819729258527E-02\n -1.575283687529683E-03 -8.219500547440722E-03\n -2.064919274659627E-03 4.390551011566199E-03\n 6.709577660603261E-04 -2.661227700158059E-03\n -1.606484397339639E-03 1.485695067551279E-03\n 6.929038144905721E-04 -9.517002085567758E-04\n -9.942775905618650E-04 5.602633764832665E-04\n 4.689475203166205E-04 -3.899629328703927E-04\n -6.122073014258622E-04 2.356964898560438E-04\n 2.957018098328490E-04 -1.779179288772005E-04\n -3.807602972546176E-04 1.123186448902212E-04\n 1.863337769769712E-04 -9.301003300585600E-05\n -2.450755644888211E-04 6.087320359897744E-05\n 1.200299972224060E-04 -5.472661865385010E-05\n -1.631037940913287E-04 3.729729924314626E-05\n 7.990608519515587E-05 -3.567400946608956E-05\n -1.123270335359472E-04 2.507476280486998E-05\n 5.492890398459908E-05 -2.497337086934106E-05\n -7.960777598297426E-05 1.801619203085914E-05\n 3.884999914769479E-05 -1.833644273868283E-05\n -5.774187264328645E-05 1.343624080791389E-05\n -0.4298654319208062 0.8867516329999465\n'
p1236
sS'log'
p1237
g13
sS'SPMETHOD'
p1238
I1
sg23
F0.00036881478889912102
sS'masses'
p1239
(lp1240
F1.0
aF1.0
aF1.0
aF1.0
asS'symfilename'
p1241
g13
sS'invalid'
p1242
I0
sS'steps'
p1243
I24
sS'ALPHA'
p1244
F1.0
sS'confdata'
p1245
S'!! CONFIG STRING\n&CONFIG\nCOMMAND=howsol\nSPMETHOD=3\nALG=0\nsteps=24\nALPHA=1.000000000000000000000000e+00\n/\n0.000000000000000000000000e+00 !! omega(1)\n0.000000000000000000000000e+00 !! omega(2)\n0.000000000000000000000000e+00 !! omega(3)\n'
p1246
sS'gamma'
p1247
(lp1248
(lp1249
F-0.20692883715172311
aF0.069408007126377402
aa(lp1250
F0.51915870944089493
aF0.90899721188392624
aa(lp1251
F-0.22039239375858971
aF0.1529161591780166
aa(lp1252
F-0.05265902557111167
aF-0.069873039347087329
aa(lp1253
F0.01425456019212845
aF-0.021123348509238148
aa(lp1254
F0.01649158189137645
aF0.011731917752717589
aa(lp1255
F-0.0098359536233031397
aF0.012529192612370191
aa(lp1256
F-0.0060202360925633858
aF-0.0042296225001855758
aa(lp1257
F-0.0001938172764055085
aF-0.002325527829778878
aa(lp1258
F0.0019763618631956428
aF0.0001625114421806573
aa(lp1259
F-0.001029376427550216
aF0.0020504124461976502
aa(lp1260
F-0.0010506238537421051
aF-0.0004236338332915777
aa(lp1261
F-0.00041262148428062792
aF-0.00021854750583177011
aa(lp1262
F0.00023538598335404171
aF-0.00021181131112457671
aa(lp1263
F-0.0002071239411380599
aF0.00043581291851316212
aa(lp1264
F-0.00022380373521101911
aF-7.9573010376267003e-05
aa(lp1265
F-0.00019403959905552051
aF3.7800831928497612e-05
aa(lp1266
F7.4660324717902571e-07
aF-0.0001050790801371869
aa(lp1267
F-8.5789254399733228e-05
aF0.00012244739493455679
aa(lp1268
F-6.1558151292294416e-05
aF-3.6550762755003792e-05
aa(lp1269
F-8.8127474884514001e-05
aF4.5426842055080057e-05
aa(lp1270
F-1.9965634236463959e-05
aF-4.6720192027810408e-05
aa(lp1271
F-4.8130480169321799e-05
aF4.7370465250357041e-05
aa(lp1272
F-2.3508217836564101e-05
aF-2.2591376997228761e-05
aa(lp1273
F-4.3669309283717003e-05
aF2.911672611287559e-05
aa(lp1274
F0.04335532117836749
aF-0.2139096333121544
aa(lp1275
F1.6689621828345129
aF0.20758572499967129
aa(lp1276
F-0.15317826758765499
aF-0.11144356013403731
aa(lp1277
F0.16700441955159051
aF-0.15301064377337159
aa(lp1278
F0.076416788901796637
aF0.1475794084059335
aa(lp1279
F-0.0087952316751500614
aF0.01801787638281506
aa(lp1280
F-0.01352384967420317
aF0.005514920621449787
aa(lp1281
F0.01416428380889051
aF-0.013410564018677599
aa(lp1282
F0.0062179557661699997
aF0.01005238097336175
aa(lp1283
F0.0029790883673468521
aF0.0021706807848866079
aa(lp1284
F-0.0021387187134651558
aF0.0021235814427255709
aa(lp1285
F0.002674139829183964
aF-0.0020267745730560699
aa(lp1286
F0.0008967078726920541
aF0.001479924312399714
aa(lp1287
F0.0014132675718197571
aF0.0002789417864360634
aa(lp1288
F-0.00033258976388034212
aF0.00075890467478017393
aa(lp1289
F0.00083300537546726616
aF-0.00038404570738828642
aa(lp1290
F0.0001665725192858561
aF0.00039540370283297141
aa(lp1291
F0.00060111176711826961
aF3.0481616162224279e-07
aa(lp1292
F-3.3306554066081517e-05
aF0.00030294122820747742
aa(lp1293
F0.00036007567946226039
aF-9.6457245514254206e-05
aa(lp1294
F4.2685892140102023e-05
aF0.0001687329498335645
aa(lp1295
F0.00027908448864535917
aF-2.7937905272122039e-05
aa(lp1296
F8.8040891748370625e-06
aF0.000139237628270894
aa(lp1297
F0.00018473567791490271
aF-3.5653092049732493e-05
aa(lp1298
F1.6698127757563099e-05
aF8.960881213558201e-05
aa(lp1299
F0.0001434840184890212
aF-2.1100321189669941e-05
aa(lp1300
F-1.0142556027299821
aF1.341570785790382
aa(lp1301
F0.98288215698569159
aF-0.071101432247786533
aa(lp1302
F0.23968754805780421
aF-0.55105525560773838
aa(lp1303
F-0.001379493034364687
aF-0.073731275767949023
aa(lp1304
F0.0027328707368996651
aF-0.042565163931035647
aa(lp1305
F-0.0054201409110206664
aF-0.012452725166162189
aa(lp1306
F-0.0013924485296437079
aF-0.0090273378267267113
aa(lp1307
F-0.0022634109109277429
aF-0.0035091796052588299
aa(lp1308
F-0.00086867743966694694
aF-0.0031615307730181591
aa(lp1309
F-0.001178786693601705
aF-0.001330848022658995
aa(lp1310
F-0.0005305469642210587
aF-0.001334392676349445
aa(lp1311
F-0.0006504858110718964
aF-0.00058390124962484635
aa(lp1312
F-0.00031503153926651373
aF-0.00066632754623773688
aa(lp1313
F-0.00038843878611326699
aF-0.00029609077046033848
aa(lp1314
F-0.0001984980293066041
aF-0.00036917543477839668
aa(lp1315
F-0.00024512113707454708
aF-0.00016408585601509351
aa(lp1316
F-0.0001291025610518082
aF-0.00022282065945085011
aa(lp1317
F-0.00016199660357392451
aF-9.8978851689097286e-05
aa(lp1318
F-8.7470046403506987e-05
aF-0.0001431355294164386
aa(lp1319
F-0.00011118263097119679
aF-6.328744866344535e-05
aa(lp1320
F-6.10338260429652e-05
aF-9.6508177612471204e-05
aa(lp1321
F-7.8629980224925733e-05
aF-4.2563699587828883e-05
aa(lp1322
F-4.3767358922971317e-05
aF-6.7544065373743422e-05
aa(lp1323
F-5.6997421762607949e-05
aF-2.9733565231490618e-05
aa(lp1324
F-3.2039909068695093e-05
aF-4.8680992399668683e-05
aa(lp1325
F-4.2072836562018429e-05
aF-2.1452645731121281e-05
aa(lp1326
F1.400765713472421
aF-2.0144127854781742
aa(lp1327
F-2.4449155026684819
aF-0.2058922998782631
aa(lp1328
F-0.60566798991104465
aF-0.24649839614215049
aa(lp1329
F0.054767467241363832
aF0.073825760363304127
aa(lp1330
F-0.026490634067584649
aF-0.035141205127810549
aa(lp1331
F-3.9187605957613503e-05
aF0.01555819729258527
aa(lp1332
F-0.0015752836875296829
aF-0.0082195005474407223
aa(lp1333
F-0.0020649192746596272
aF0.0043905510115661989
aa(lp1334
F0.00067095776606032609
aF-0.0026612277001580591
aa(lp1335
F-0.0016064843973396391
aF0.001485695067551279
aa(lp1336
F0.00069290381449057213
aF-0.00095170020855677578
aa(lp1337
F-0.00099427759056186504
aF0.00056026337648326652
aa(lp1338
F0.00046894752031662051
aF-0.00038996293287039269
aa(lp1339
F-0.00061220730142586216
aF0.0002356964898560438
aa(lp1340
F0.00029570180983284899
aF-0.00017791792887720051
aa(lp1341
F-0.00038076029725461757
aF0.0001123186448902212
aa(lp1342
F0.00018633377697697121
aF-9.3010033005856002e-05
aa(lp1343
F-0.00024507556448882112
aF6.0873203598977438e-05
aa(lp1344
F0.000120029997222406
aF-5.4726618653850097e-05
aa(lp1345
F-0.00016310379409132869
aF3.7297299243146259e-05
aa(lp1346
F7.9906085195155865e-05
aF-3.5674009466089558e-05
aa(lp1347
F-0.0001123270335359472
aF2.507476280486998e-05
aa(lp1348
F5.4928903984599077e-05
aF-2.4973370869341059e-05
aa(lp1349
F-7.960777598297426e-05
aF1.8016192030859138e-05
aa(lp1350
F3.884999914769479e-05
aF-1.8336442738682832e-05
aa(lp1351
F-5.774187264328645e-05
aF1.3436240807913891e-05
aa(lp1352
F-0.42986543192080617
aF0.88675163299994653
aasS'viewfile'
p1353
g13
sba(imin_path.mod_minpath
minpath
p1354
(dp1355
g3
F15.82482435682973
sS'symdata'
p1356
S'!!!======================================================================\n!!! generated configuration file\n!!!======================================================================\n0 !! action_type\n4 !! NOB\n2 !! dim\n1  !! sizekerT\n1 !! perm j=1\n2 !! perm j=2\n3 !! perm j=3\n4 !! perm j=4\n1.0D0 !! matrix (j,k)=(1,1)\n0.0D0 !! matrix (j,k)=(1,2)\n0.0D0 !! matrix (j,k)=(2,1)\n1.0D0 !! matrix (j,k)=(2,2)\n6  !! cyclic_order\n1 !! cyclic_perm j=1\n2 !! cyclic_perm j=2\n4 !! cyclic_perm j=3\n3 !! cyclic_perm j=4\n-0.5D0 !! cyclic_matrix (j,k)=(1,1)\n-0.8660254037844386D0  !!! imag= 5.8286708792820718e-16 !! cyclic_matrix (j,k)=(1,2)\n0.8660254037844386D0  !!! imag= -5.8286708792820718e-16 !! cyclic_matrix (j,k)=(2,1)\n-0.5D0 !! cyclic_matrix (j,k)=(2,2)\n1 !! cyclic_perm j=1\n2 !! cyclic_perm j=2\n3 !! cyclic_perm j=3\n4 !! cyclic_perm j=4\n-0.5D0 !! cyclic_matrix (j,k)=(1,1)\n0.8660254037844386D0  !!! imag= -5.8286708792820718e-16 !! cyclic_matrix (j,k)=(1,2)\n-0.8660254037844386D0  !!! imag= 5.8286708792820718e-16 !! cyclic_matrix (j,k)=(2,1)\n-0.5D0 !! cyclic_matrix (j,k)=(2,2)\n1 !! cyclic_perm j=1\n2 !! cyclic_perm j=2\n4 !! cyclic_perm j=3\n3 !! cyclic_perm j=4\n1.0D0 !! cyclic_matrix (j,k)=(1,1)\n0.0D0 !! cyclic_matrix (j,k)=(1,2)\n0.0D0 !! cyclic_matrix (j,k)=(2,1)\n1.0D0 !! cyclic_matrix (j,k)=(2,2)\n1 !! cyclic_perm j=1\n2 !! cyclic_perm j=2\n3 !! cyclic_perm j=3\n4 !! cyclic_perm j=4\n-0.5D0 !! cyclic_matrix (j,k)=(1,1)\n-0.8660254037844386D0  !!! imag= 5.8286708792820718e-16 !! cyclic_matrix (j,k)=(1,2)\n0.8660254037844386D0  !!! imag= -5.8286708792820718e-16 !! cyclic_matrix (j,k)=(2,1)\n-0.5D0 !! cyclic_matrix (j,k)=(2,2)\n1 !! cyclic_perm j=1\n2 !! cyclic_perm j=2\n4 !! cyclic_perm j=3\n3 !! cyclic_perm j=4\n-0.5D0 !! cyclic_matrix (j,k)=(1,1)\n0.8660254037844386D0  !!! imag= -5.8286708792820718e-16 !! cyclic_matrix (j,k)=(1,2)\n-0.8660254037844386D0  !!! imag= 5.8286708792820718e-16 !! cyclic_matrix (j,k)=(2,1)\n-0.5D0 !! cyclic_matrix (j,k)=(2,2)\n1 !! cyclic_perm j=1\n2 !! cyclic_perm j=2\n3 !! cyclic_perm j=3\n4 !! cyclic_perm j=4\n1.0D0 !! cyclic_matrix (j,k)=(1,1)\n0.0D0 !! cyclic_matrix (j,k)=(1,2)\n0.0D0 !! cyclic_matrix (j,k)=(2,1)\n1.0D0 !! cyclic_matrix (j,k)=(2,2)\n'
p1357
sS'TODOLIST'
p1358
(lp1359
S'new()'
p1360
aS'relax(200)'
p1361
asS'NOB'
p1362
I4
sS'withcoll'
p1363
I0
sS'todo'
p1364
g13
sS'omega'
p1365
(lp1366
F0.0
aF0.0
aF0.0
asS'massdata'
p1367
S' 1.000000000000000000000000e+00 !! m(1)\n 1.000000000000000000000000e+00 !! m(2)\n 1.000000000000000000000000e+00 !! m(3)\n 1.000000000000000000000000e+00 !! m(4)\n'
p1368
sS'dim'
p1369
I2
sS'gammadata'
p1370
S' 4 2 24  !! NOB,dim,steps\n 0.000000000000000E+00 0.000000000000000E+00 0.000000000000000E+00  !! omega\n 1.000000000000000  !! ALPHA\n 1.000000000000000  !! m( 1 )\n 1.000000000000000  !! m( 2 )\n 1.000000000000000  !! m( 3 )\n 1.000000000000000  !! m( 4 )\n 0.6307668256068630 9.166886975996180E-02\n 1.021128549949871 0.7584391313003893\n -9.069239838338927E-02 0.1172518947902656\n -2.735695895829427E-02 1.602330364902110E-02\n 7.167277459189880E-03 5.384032365491703E-03\n -7.163608017655990E-03 7.746559802540021E-04\n 2.382741072437966E-03 6.144732206226060E-03\n -2.833656066924383E-03 -1.508220249442423E-03\n 4.448880198110235E-04 2.534430972962427E-03\n -5.589853757338240E-04 -3.806390837282902E-04\n -1.636754439095014E-04 1.038371232001178E-03\n -2.237466807791452E-04 -1.504386021806969E-05\n -5.259693910143227E-05 4.422170508560118E-04\n -1.787481733880863E-04 6.516579137102628E-05\n 7.840639604629954E-06 2.588454798360361E-04\n -1.432032236562981E-04 2.831103333400010E-05\n 2.215054975170019E-05 1.849280194186204E-04\n -9.973245140791620E-05 7.143070036431904E-06\n 1.296418884514858E-05 1.335853142554883E-04\n -6.555085654024947E-05 1.313631866248308E-06\n 6.441883810569260E-06 9.498379547696802E-05\n -4.511021866037031E-05 1.720180146619170E-06\n 3.829457093249000E-06 6.762962328456744E-05\n -3.275105994944414E-05 2.126927871102299E-06\n 2.959659227423379E-06 4.945404938238045E-05\n -0.3947709827517657 0.5004256599600312\n 1.452320714682546 -0.5032654194725241\n -0.2679475962799573 7.772565401715248E-02\n 0.1676030131593866 -0.2863106314594895\n 1.819387710970757E-03 1.802032771177103E-02\n 1.237763691370619E-02 -7.441184499783676E-03\n 8.708513083567137E-03 2.846926163855457E-03\n 1.953523671112567E-03 -9.214997932608176E-03\n 1.141631305028680E-03 2.314269754107437E-03\n 1.707966049126413E-03 -1.588450068575293E-03\n 1.177709780567443E-03 8.620049131505964E-05\n 4.094169001361975E-04 -1.236140104369114E-03\n 4.621235555051385E-04 4.428428947039625E-04\n 4.699453542476670E-04 -6.195501130762697E-04\n 2.751697084544778E-04 1.064566722381649E-04\n 2.065434182297937E-04 -3.811261723864340E-04\n 1.910422450076572E-04 1.303803898745287E-04\n 1.653717307345901E-04 -2.649180308730986E-04\n 1.153189541814488E-04 6.802517050886491E-05\n 1.036503745958303E-04 -1.706271215965588E-04\n 8.761781541785987E-05 5.275936520692274E-05\n 7.527706165522119E-05 -1.256312011146225E-04\n 5.934779575436991E-05 3.676974783542713E-05\n 5.454083913364067E-05 -8.857435283160606E-05\n 4.479384656395441E-05 2.678889320131524E-05\n 4.009871394091498E-05 -6.639611650650315E-05\n -0.2903197192318354 1.509379343093719\n -1.391883157838320 1.302896545791430\n -0.5550336265040443 -0.3191779821442333\n -6.694641922298100E-02 0.1659350713164366\n 3.997378884097408E-02 -1.656462515404944E-02\n -1.780796837674758E-02 2.259882875581959E-03\n 9.124861304927942E-04 3.022959244790568E-04\n -3.611427649327648E-03 3.137303119802711E-03\n 2.660731499398187E-03 7.281498417888790E-04\n -1.826708257019485E-03 -9.150092179149548E-04\n -1.553793147235499E-04 1.006818037649786E-03\n -7.200788877527453E-05 2.139003206145657E-04\n 1.639691511407318E-05 -4.045153066020712E-05\n -3.163609277743642E-04 1.871154396851092E-04\n 5.692347100059829E-05 5.858631933831557E-05\n -1.506697762298547E-04 1.287380342071195E-04\n 5.045579271198246E-05 -1.187182535484534E-05\n -1.452902818075081E-04 8.422398526966926E-05\n 5.059087418348568E-05 2.321587265208245E-05\n -8.748463197094658E-05 3.996232287305918E-05\n 2.412255214832154E-05 1.438835114489631E-05\n -6.101146301974378E-05 3.270482492521813E-05\n 1.892201221447443E-05 1.053396676754543E-05\n -4.329913754903695E-05 2.243605917698257E-05\n 1.228524879290762E-05 6.968033074367021E-06\n -3.187986119317912E-05 1.804240351217399E-05\n 1.117490630222816 -0.1529505563703428\n -0.6912043824510885 -0.8912999960788688\n -0.1981473271658696 -0.5169868031733102\n -9.964195553016308E-03 3.123665352787311E-03\n -1.443621759365057E-02 -1.747900620674259E-02\n -1.736945996148709E-03 -2.027307412899582E-04\n -2.457391196403924E-03 -3.923878068588404E-03\n -7.248370942228854E-04 -6.703739342059497E-05\n -9.687067375024842E-04 -1.534199346453886E-03\n -3.261458119179529E-04 -3.097168647217541E-05\n -4.633450901100761E-04 -7.123794452365689E-04\n -1.737335674514007E-04 -1.613144824662294E-05\n -2.547737898400630E-04 -3.873475038256996E-04\n -1.009874873718654E-04 -9.782377464851756E-06\n -1.533450060669829E-04 -2.302087829475065E-04\n -6.371428160456983E-05 -6.457341656725124E-06\n -9.829481406334155E-05 -1.468195978536844E-04\n -4.223199867878181E-05 -4.233973815194469E-06\n -6.617737695701481E-05 -9.838411319737920E-05\n -2.912993147003579E-05 -2.920515531995571E-06\n -4.618951102593194E-05 -6.846134821806822E-05\n -2.070748244604667E-05 -2.057419287562756E-06\n -3.315958930847577E-05 -4.902389474959173E-05\n -1.507115867785316E-05 -1.491329629943515E-06\n -2.432803540741788E-05 -3.588385414678413E-05\n -1.117851197515968E-05 -1.100336388051284E-06\n -0.4323999282392137 -1.856854446683406\n'
p1371
sS'log'
p1372
g13
sS'SPMETHOD'
p1373
I1
sg23
F0.00016721503935916449
sS'masses'
p1374
(lp1375
F1.0
aF1.0
aF1.0
aF1.0
asS'symfilename'
p1376
g13
sS'invalid'
p1377
I0
sS'steps'
p1378
I24
sS'ALPHA'
p1379
F1.0
sS'confdata'
p1380
S'!! CONFIG STRING\n&CONFIG\nCOMMAND=howsol\nSPMETHOD=3\nALG=0\nsteps=24\nALPHA=1.000000000000000000000000e+00\n/\n0.000000000000000000000000e+00 !! omega(1)\n0.000000000000000000000000e+00 !! omega(2)\n0.000000000000000000000000e+00 !! omega(3)\n'
p1381
sS'gamma'
p1382
(lp1383
(lp1384
F0.63076682560686304
aF0.091668869759961802
aa(lp1385
F1.021128549949871
aF0.75843913130038931
aa(lp1386
F-0.090692398383389272
aF0.1172518947902656
aa(lp1387
F-0.027356958958294271
aF0.0160233036490211
aa(lp1388
F0.0071672774591898802
aF0.0053840323654917033
aa(lp1389
F-0.0071636080176559896
aF0.00077465598025400206
aa(lp1390
F0.0023827410724379661
aF0.0061447322062260596
aa(lp1391
F-0.0028336560669243831
aF-0.0015082202494424231
aa(lp1392
F0.00044488801981102348
aF0.002534430972962427
aa(lp1393
F-0.00055898537573382395
aF-0.0003806390837282902
aa(lp1394
F-0.0001636754439095014
aF0.001038371232001178
aa(lp1395
F-0.0002237466807791452
aF-1.504386021806969e-05
aa(lp1396
F-5.2596939101432268e-05
aF0.0004422170508560118
aa(lp1397
F-0.00017874817338808631
aF6.5165791371026276e-05
aa(lp1398
F7.8406396046299537e-06
aF0.00025884547983603609
aa(lp1399
F-0.0001432032236562981
aF2.8311033334000101e-05
aa(lp1400
F2.215054975170019e-05
aF0.00018492801941862039
aa(lp1401
F-9.9732451407916201e-05
aF7.1430700364319042e-06
aa(lp1402
F1.2964188845148579e-05
aF0.00013358531425548831
aa(lp1403
F-6.5550856540249475e-05
aF1.3136318662483079e-06
aa(lp1404
F6.44188381056926e-06
aF9.4983795476968023e-05
aa(lp1405
F-4.5110218660370308e-05
aF1.7201801466191699e-06
aa(lp1406
F3.8294570932490002e-06
aF6.7629623284567444e-05
aa(lp1407
F-3.2751059949444137e-05
aF2.126927871102299e-06
aa(lp1408
F2.9596592274233791e-06
aF4.9454049382380453e-05
aa(lp1409
F-0.3947709827517657
aF0.50042565996003119
aa(lp1410
F1.4523207146825461
aF-0.50326541947252412
aa(lp1411
F-0.26794759627995729
aF0.077725654017152479
aa(lp1412
F0.16760301315938661
aF-0.28631063145948948
aa(lp1413
F0.0018193877109707571
aF0.01802032771177103
aa(lp1414
F0.01237763691370619
aF-0.0074411844997836762
aa(lp1415
F0.0087085130835671369
aF0.002846926163855457
aa(lp1416
F0.001953523671112567
aF-0.0092149979326081755
aa(lp1417
F0.00114163130502868
aF0.002314269754107437
aa(lp1418
F0.001707966049126413
aF-0.0015884500685752929
aa(lp1419
F0.001177709780567443
aF8.6200491315059635e-05
aa(lp1420
F0.00040941690013619752
aF-0.001236140104369114
aa(lp1421
F0.00046212355550513852
aF0.00044284289470396249
aa(lp1422
F0.000469945354247667
aF-0.00061955011307626966
aa(lp1423
F0.00027516970845447778
aF0.0001064566722381649
aa(lp1424
F0.00020654341822979371
aF-0.00038112617238643398
aa(lp1425
F0.00019104224500765719
aF0.00013038038987452869
aa(lp1426
F0.00016537173073459009
aF-0.00026491803087309862
aa(lp1427
F0.0001153189541814488
aF6.8025170508864908e-05
aa(lp1428
F0.00010365037459583031
aF-0.0001706271215965588
aa(lp1429
F8.7617815417859873e-05
aF5.2759365206922742e-05
aa(lp1430
F7.5277061655221189e-05
aF-0.0001256312011146225
aa(lp1431
F5.9347795754369909e-05
aF3.6769747835427129e-05
aa(lp1432
F5.4540839133640669e-05
aF-8.8574352831606064e-05
aa(lp1433
F4.4793846563954411e-05
aF2.678889320131524e-05
aa(lp1434
F4.0098713940914981e-05
aF-6.6396116506503154e-05
aa(lp1435
F-0.29031971923183542
aF1.509379343093719
aa(lp1436
F-1.39188315783832
aF1.3028965457914301
aa(lp1437
F-0.55503362650404431
aF-0.31917798214423332
aa(lp1438
F-0.066946419222981002
aF0.16593507131643659
aa(lp1439
F0.039973788840974078
aF-0.016564625154049439
aa(lp1440
F-0.017807968376747581
aF0.0022598828755819589
aa(lp1441
F0.0009124861304927942
aF0.00030229592447905679
aa(lp1442
F-0.003611427649327648
aF0.0031373031198027109
aa(lp1443
F0.0026607314993981868
aF0.00072814984178887904
aa(lp1444
F-0.0018267082570194849
aF-0.00091500921791495479
aa(lp1445
F-0.00015537931472354991
aF0.0010068180376497861
aa(lp1446
F-7.2007888775274531e-05
aF0.00021390032061456571
aa(lp1447
F1.6396915114073179e-05
aF-4.0451530660207118e-05
aa(lp1448
F-0.00031636092777436418
aF0.00018711543968510919
aa(lp1449
F5.6923471000598289e-05
aF5.8586319338315568e-05
aa(lp1450
F-0.0001506697762298547
aF0.00012873803420711949
aa(lp1451
F5.0455792711982458e-05
aF-1.187182535484534e-05
aa(lp1452
F-0.00014529028180750809
aF8.422398526966926e-05
aa(lp1453
F5.0590874183485679e-05
aF2.3215872652082449e-05
aa(lp1454
F-8.748463197094658e-05
aF3.9962322873059182e-05
aa(lp1455
F2.4122552148321541e-05
aF1.4388351144896311e-05
aa(lp1456
F-6.1011463019743778e-05
aF3.2704824925218132e-05
aa(lp1457
F1.892201221447443e-05
aF1.053396676754543e-05
aa(lp1458
F-4.3299137549036953e-05
aF2.2436059176982569e-05
aa(lp1459
F1.228524879290762e-05
aF6.9680330743670206e-06
aa(lp1460
F-3.1879861193179117e-05
aF1.8042403512173989e-05
aa(lp1461
F1.117490630222816
aF-0.1529505563703428
aa(lp1462
F-0.69120438245108851
aF-0.89129999607886878
aa(lp1463
F-0.19814732716586961
aF-0.51698680317331025
aa(lp1464
F-0.0099641955530163084
aF0.0031236653527873109
aa(lp1465
F-0.014436217593650571
aF-0.01747900620674259
aa(lp1466
F-0.001736945996148709
aF-0.00020273074128995819
aa(lp1467
F-0.0024573911964039241
aF-0.0039238780685884036
aa(lp1468
F-0.00072483709422288545
aF-6.7037393420594973e-05
aa(lp1469
F-0.00096870673750248416
aF-0.001534199346453886
aa(lp1470
F-0.00032614581191795292
aF-3.0971686472175408e-05
aa(lp1471
F-0.00046334509011007607
aF-0.00071237944523656893
aa(lp1472
F-0.0001737335674514007
aF-1.613144824662294e-05
aa(lp1473
F-0.000254773789840063
aF-0.0003873475038256996
aa(lp1474
F-0.0001009874873718654
aF-9.7823774648517561e-06
aa(lp1475
F-0.0001533450060669829
aF-0.0002302087829475065
aa(lp1476
F-6.3714281604569829e-05
aF-6.4573416567251241e-06
aa(lp1477
F-9.8294814063341548e-05
aF-0.00014681959785368441
aa(lp1478
F-4.2231998678781812e-05
aF-4.2339738151944686e-06
aa(lp1479
F-6.6177376957014811e-05
aF-9.8384113197379203e-05
aa(lp1480
F-2.9129931470035789e-05
aF-2.9205155319955711e-06
aa(lp1481
F-4.618951102593194e-05
aF-6.8461348218068225e-05
aa(lp1482
F-2.0707482446046671e-05
aF-2.0574192875627562e-06
aa(lp1483
F-3.3159589308475769e-05
aF-4.9023894749591727e-05
aa(lp1484
F-1.507115867785316e-05
aF-1.4913296299435149e-06
aa(lp1485
F-2.4328035407417881e-05
aF-3.5883854146784133e-05
aa(lp1486
F-1.1178511975159681e-05
aF-1.100336388051284e-06
aa(lp1487
F-0.43239992823921369
aF-1.856854446683406
aasS'viewfile'
p1488
g13
sba(imin_path.mod_minpath
minpath
p1489
(dp1490
g3
F16.608559612285259
sS'symdata'
p1491
S'!!!======================================================================\n!!! generated configuration file\n!!!======================================================================\n0 !! action_type\n4 !! NOB\n2 !! dim\n1  !! sizekerT\n1 !! perm j=1\n2 !! perm j=2\n3 !! perm j=3\n4 !! perm j=4\n1.0D0 !! matrix (j,k)=(1,1)\n0.0D0 !! matrix (j,k)=(1,2)\n0.0D0 !! matrix (j,k)=(2,1)\n1.0D0 !! matrix (j,k)=(2,2)\n6  !! cyclic_order\n1 !! cyclic_perm j=1\n2 !! cyclic_perm j=2\n4 !! cyclic_perm j=3\n3 !! cyclic_perm j=4\n-0.5D0 !! cyclic_matrix (j,k)=(1,1)\n-0.8660254037844386D0  !!! imag= 5.8286708792820718e-16 !! cyclic_matrix (j,k)=(1,2)\n0.8660254037844386D0  !!! imag= -5.8286708792820718e-16 !! cyclic_matrix (j,k)=(2,1)\n-0.5D0 !! cyclic_matrix (j,k)=(2,2)\n1 !! cyclic_perm j=1\n2 !! cyclic_perm j=2\n3 !! cyclic_perm j=3\n4 !! cyclic_perm j=4\n-0.5D0 !! cyclic_matrix (j,k)=(1,1)\n0.8660254037844386D0  !!! imag= -5.8286708792820718e-16 !! cyclic_matrix (j,k)=(1,2)\n-0.8660254037844386D0  !!! imag= 5.8286708792820718e-16 !! cyclic_matrix (j,k)=(2,1)\n-0.5D0 !! cyclic_matrix (j,k)=(2,2)\n1 !! cyclic_perm j=1\n2 !! cyclic_perm j=2\n4 !! cyclic_perm j=3\n3 !! cyclic_perm j=4\n1.0D0 !! cyclic_matrix (j,k)=(1,1)\n0.0D0 !! cyclic_matrix (j,k)=(1,2)\n0.0D0 !! cyclic_matrix (j,k)=(2,1)\n1.0D0 !! cyclic_matrix (j,k)=(2,2)\n1 !! cyclic_perm j=1\n2 !! cyclic_perm j=2\n3 !! cyclic_perm j=3\n4 !! cyclic_perm j=4\n-0.5D0 !! cyclic_matrix (j,k)=(1,1)\n-0.8660254037844386D0  !!! imag= 5.8286708792820718e-16 !! cyclic_matrix (j,k)=(1,2)\n0.8660254037844386D0  !!! imag= -5.8286708792820718e-16 !! cyclic_matrix (j,k)=(2,1)\n-0.5D0 !! cyclic_matrix (j,k)=(2,2)\n1 !! cyclic_perm j=1\n2 !! cyclic_perm j=2\n4 !! cyclic_perm j=3\n3 !! cyclic_perm j=4\n-0.5D0 !! cyclic_matrix (j,k)=(1,1)\n0.8660254037844386D0  !!! imag= -5.8286708792820718e-16 !! cyclic_matrix (j,k)=(1,2)\n-0.8660254037844386D0  !!! imag= 5.8286708792820718e-16 !! cyclic_matrix (j,k)=(2,1)\n-0.5D0 !! cyclic_matrix (j,k)=(2,2)\n1 !! cyclic_perm j=1\n2 !! cyclic_perm j=2\n3 !! cyclic_perm j=3\n4 !! cyclic_perm j=4\n1.0D0 !! cyclic_matrix (j,k)=(1,1)\n0.0D0 !! cyclic_matrix (j,k)=(1,2)\n0.0D0 !! cyclic_matrix (j,k)=(2,1)\n1.0D0 !! cyclic_matrix (j,k)=(2,2)\n'
p1492
sS'TODOLIST'
p1493
(lp1494
S'new()'
p1495
aS'relax(200)'
p1496
asS'NOB'
p1497
I4
sS'withcoll'
p1498
I0
sS'todo'
p1499
g13
sS'omega'
p1500
(lp1501
F0.0
aF0.0
aF0.0
asS'massdata'
p1502
S' 1.000000000000000000000000e+00 !! m(1)\n 1.000000000000000000000000e+00 !! m(2)\n 1.000000000000000000000000e+00 !! m(3)\n 1.000000000000000000000000e+00 !! m(4)\n'
p1503
sS'dim'
p1504
I2
sS'gammadata'
p1505
S' 4 2 24  !! NOB,dim,steps\n 0.000000000000000E+00 0.000000000000000E+00 0.000000000000000E+00  !! omega\n 1.000000000000000  !! ALPHA\n 1.000000000000000  !! m( 1 )\n 1.000000000000000  !! m( 2 )\n 1.000000000000000  !! m( 3 )\n 1.000000000000000  !! m( 4 )\n -1.367724305455191 7.567247319742876E-02\n -0.3934847757752817 -0.5567059040245415\n -8.411268786616088E-02 5.028777680074570E-02\n -8.584460833781837E-03 -1.365143519886924E-02\n -9.316837784048966E-03 5.199891423514624E-03\n -1.614838306515765E-03 -2.756387698362062E-03\n -2.632778579017836E-03 1.632957412006975E-03\n -5.694816339566547E-04 -9.492210924155059E-04\n -1.106196840996776E-03 6.827991770532726E-04\n -2.728899962163821E-04 -4.451995072364268E-04\n -5.613161268357425E-04 3.407944536195327E-04\n -1.473691943281175E-04 -2.414539070680517E-04\n -3.187819395763514E-04 1.937483074074819E-04\n -8.722198930172578E-05 -1.433823824987662E-04\n -1.966109398122695E-04 1.197858580233579E-04\n -5.555872033664866E-05 -9.125949258235923E-05\n -1.286989591114235E-04 7.839993682431197E-05\n -3.724019022321740E-05 -6.113757592446367E-05\n -8.796609712703740E-05 5.357190825642198E-05\n -2.590199256719927E-05 -4.252799399875884E-05\n -6.213013549644791E-05 3.784065238106619E-05\n -1.854009852422615E-05 -3.044371400075805E-05\n -4.500849022745501E-05 2.741526238568114E-05\n -1.356780109059222E-05 -2.227753714528075E-05\n -3.325885016708540E-05 2.026102553785367E-05\n 0.6183278685714271 -1.222320230496340\n 5.175892366319701E-02 -1.350080423579813\n 0.6172788407264793 -0.3489284100054881\n -3.804421680212755E-02 -8.102768585836873E-02\n 1.371496493128310E-02 -5.758791018956266E-03\n -4.715483470766203E-03 -8.797305692779256E-03\n 2.628820262050802E-03 -1.259913647758459E-03\n -1.372179245508087E-03 -2.674953430942706E-03\n 9.611540499255902E-04 -5.037318827079973E-04\n -5.560739772933962E-04 -1.116932383994351E-03\n 4.481743595367432E-04 -2.267268728890492E-04\n -2.813429560896141E-04 -5.579930389100762E-04\n 2.402105785634968E-04 -1.205138901142523E-04\n -1.605112860210145E-04 -3.174299431463190E-04\n 1.427858292188961E-04 -7.207003762894904E-05\n -9.894426881090768E-05 -1.961385224267254E-04\n 9.101644767443851E-05 -4.595286898213900E-05\n -6.471442807978517E-05 -1.283144008770655E-04\n 6.095132210415547E-05 -3.074493919136279E-05\n -4.423131110241688E-05 -8.767438474283247E-05\n 4.238595086833474E-05 -2.138118618064122E-05\n -3.124032054789561E-05 -6.192722700816382E-05\n 3.034090992122020E-05 -1.530669935296798E-05\n -2.262874811949714E-05 -4.486041177403748E-05\n 2.220015112733981E-05 -1.119272924011289E-05\n -1.672457554694788E-05 -3.315157648078296E-05\n 1.143324482140574 0.7198647545547745\n 1.080962415137442 0.3863051784774179\n -0.7050393792350333 0.8820119477912236\n 0.2234709956815255 0.2950914004748753\n 9.141002058152181E-02 8.120105558059976E-03\n 4.833422278577841E-02 -9.720928638380921E-03\n 7.356722552633865E-03 -2.121869424138190E-02\n 1.217017095542228E-03 -4.601223604236759E-03\n -2.227463545800293E-03 -3.066864991659812E-03\n 6.045626002470633E-04 1.728373005478567E-03\n 4.500099871761337E-04 -1.972250582721324E-04\n 1.301418780546904E-03 7.310419003403769E-04\n 5.482903859024054E-04 -5.675423961203629E-04\n 6.619253857932939E-04 1.297389314968422E-04\n 1.845557354171481E-04 -4.115987419168812E-04\n 3.250146733602827E-04 1.139736415873838E-04\n 1.014791847267389E-04 -2.151369258748571E-04\n 2.251339353958287E-04 1.001409464482634E-04\n 8.346875722297221E-05 -1.398963981609214E-04\n 1.610129267503296E-04 6.387667603239243E-05\n 5.921596161400836E-05 -1.023236823157886E-04\n 1.121145749895559E-04 4.294406884490336E-05\n 4.116183703973316E-05 -7.332512761247132E-05\n 8.059637433384999E-05 3.195086136839956E-05\n 3.021554374762689E-05 -5.312594385093773E-05\n 5.980117576342186E-05 2.384855903896869E-05\n -0.8866210449683507 -0.2405328468649337\n 0.2350029666545481 0.8881027719049648\n 0.4812453142838362 2.362236623880598E-02\n -0.1013140910132369 -0.2643514914172522\n -9.654052467902274E-02 1.129012065976731E-02\n -3.430190153096323E-02 1.331834290764544E-02\n -8.370704508169124E-03 2.523499558750331E-02\n 2.787940728983584E-03 5.643219623172491E-03\n 1.835791129831357E-03 4.519817966783302E-03\n 1.057708218043123E-03 -1.294239798537600E-03\n -6.252943504964914E-04 8.691514383974974E-04\n -4.587596976216579E-04 -5.138433150498403E-04\n -6.411317701377865E-04 9.295101933026670E-04\n -1.826321601959349E-04 -6.057295758088443E-06\n -2.401195753343171E-04 6.270511620446104E-04\n -2.945946473710895E-05 -3.762097718401636E-05\n -1.369369120645392E-04 3.523492874393545E-04\n -3.172054820461999E-05 -5.022648239550896E-05\n -1.071798891039103E-04 2.317789132768588E-04\n -2.881551852087702E-05 -2.977419954598368E-05\n -7.569991991514377E-05 1.662328624952025E-04\n -1.874411894521241E-05 -1.885749421780573E-05\n -5.296264843672720E-05 1.190755409661961E-04\n -1.295913598690045E-05 -1.450571198004409E-05\n -3.884789378437448E-05 8.659621023633657E-05\n -9.817750049388529E-06 -1.095800809603961E-05\n -0.8750313057436507 0.7429883228064966\n'
p1506
sS'log'
p1507
g13
sS'SPMETHOD'
p1508
I1
sg23
F0.0001050880612830754
sS'masses'
p1509
(lp1510
F1.0
aF1.0
aF1.0
aF1.0
asS'symfilename'
p1511
g13
sS'invalid'
p1512
I0
sS'steps'
p1513
I24
sS'ALPHA'
p1514
F1.0
sS'confdata'
p1515
S'!! CONFIG STRING\n&CONFIG\nCOMMAND=howsol\nSPMETHOD=3\nALG=0\nsteps=24\nALPHA=1.000000000000000000000000e+00\n/\n0.000000000000000000000000e+00 !! omega(1)\n0.000000000000000000000000e+00 !! omega(2)\n0.000000000000000000000000e+00 !! omega(3)\n'
p1516
sS'gamma'
p1517
(lp1518
(lp1519
F-1.3677243054551911
aF0.075672473197428758
aa(lp1520
F-0.39348477577528168
aF-0.55670590402454145
aa(lp1521
F-0.084112687866160885
aF0.050287776800745698
aa(lp1522
F-0.0085844608337818373
aF-0.01365143519886924
aa(lp1523
F-0.0093168377840489661
aF0.0051998914235146243
aa(lp1524
F-0.001614838306515765
aF-0.0027563876983620621
aa(lp1525
F-0.002632778579017836
aF0.001632957412006975
aa(lp1526
F-0.00056948163395665469
aF-0.0009492210924155059
aa(lp1527
F-0.001106196840996776
aF0.00068279917705327264
aa(lp1528
F-0.00027288999621638207
aF-0.00044519950723642682
aa(lp1529
F-0.0005613161268357425
aF0.00034079445361953267
aa(lp1530
F-0.00014736919432811751
aF-0.0002414539070680517
aa(lp1531
F-0.00031878193957635142
aF0.00019374830740748189
aa(lp1532
F-8.7221989301725783e-05
aF-0.0001433823824987662
aa(lp1533
F-0.00019661093981226949
aF0.0001197858580233579
aa(lp1534
F-5.5558720336648659e-05
aF-9.1259492582359235e-05
aa(lp1535
F-0.00012869895911142351
aF7.8399936824311966e-05
aa(lp1536
F-3.7240190223217402e-05
aF-6.1137575924463672e-05
aa(lp1537
F-8.7966097127037401e-05
aF5.3571908256421982e-05
aa(lp1538
F-2.5901992567199271e-05
aF-4.252799399875884e-05
aa(lp1539
F-6.2130135496447914e-05
aF3.7840652381066191e-05
aa(lp1540
F-1.854009852422615e-05
aF-3.044371400075805e-05
aa(lp1541
F-4.5008490227455011e-05
aF2.7415262385681139e-05
aa(lp1542
F-1.356780109059222e-05
aF-2.2277537145280749e-05
aa(lp1543
F-3.3258850167085398e-05
aF2.026102553785367e-05
aa(lp1544
F0.61832786857142708
aF-1.2223202304963401
aa(lp1545
F0.05175892366319701
aF-1.3500804235798129
aa(lp1546
F0.61727884072647932
aF-0.34892841000548808
aa(lp1547
F-0.038044216802127551
aF-0.081027685858368725
aa(lp1548
F0.013714964931283101
aF-0.0057587910189562663
aa(lp1549
F-0.0047154834707662033
aF-0.0087973056927792559
aa(lp1550
F0.0026288202620508021
aF-0.0012599136477584589
aa(lp1551
F-0.001372179245508087
aF-0.0026749534309427059
aa(lp1552
F0.00096115404992559023
aF-0.00050373188270799729
aa(lp1553
F-0.00055607397729339619
aF-0.001116932383994351
aa(lp1554
F0.00044817435953674317
aF-0.00022672687288904919
aa(lp1555
F-0.00028134295608961413
aF-0.00055799303891007623
aa(lp1556
F0.00024021057856349681
aF-0.0001205138901142523
aa(lp1557
F-0.0001605112860210145
aF-0.000317429943146319
aa(lp1558
F0.00014278582921889611
aF-7.2070037628949035e-05
aa(lp1559
F-9.8944268810907676e-05
aF-0.00019613852242672541
aa(lp1560
F9.1016447674438505e-05
aF-4.5952868982139003e-05
aa(lp1561
F-6.4714428079785166e-05
aF-0.00012831440087706549
aa(lp1562
F6.0951322104155468e-05
aF-3.0744939191362792e-05
aa(lp1563
F-4.4231311102416883e-05
aF-8.767438474283247e-05
aa(lp1564
F4.2385950868334742e-05
aF-2.1381186180641221e-05
aa(lp1565
F-3.1240320547895613e-05
aF-6.1927227008163818e-05
aa(lp1566
F3.03409099212202e-05
aF-1.5306699352967981e-05
aa(lp1567
F-2.2628748119497138e-05
aF-4.4860411774037483e-05
aa(lp1568
F2.220015112733981e-05
aF-1.119272924011289e-05
aa(lp1569
F-1.6724575546947881e-05
aF-3.3151576480782959e-05
aa(lp1570
F1.1433244821405739
aF0.7198647545547745
aa(lp1571
F1.080962415137442
aF0.38630517847741791
aa(lp1572
F-0.70503937923503335
aF0.88201194779122361
aa(lp1573
F0.22347099568152551
aF0.29509140047487531
aa(lp1574
F0.091410020581521811
aF0.0081201055580599757
aa(lp1575
F0.048334222785778411
aF-0.0097209286383809212
aa(lp1576
F0.0073567225526338653
aF-0.0212186942413819
aa(lp1577
F0.0012170170955422279
aF-0.0046012236042367594
aa(lp1578
F-0.0022274635458002928
aF-0.0030668649916598119
aa(lp1579
F0.00060456260024706332
aF0.0017283730054785671
aa(lp1580
F0.00045000998717613372
aF-0.00019722505827213241
aa(lp1581
F0.001301418780546904
aF0.00073104190034037689
aa(lp1582
F0.00054829038590240541
aF-0.00056754239612036295
aa(lp1583
F0.00066192538579329385
aF0.00012973893149684221
aa(lp1584
F0.00018455573541714809
aF-0.00041159874191688117
aa(lp1585
F0.00032501467336028272
aF0.00011397364158738379
aa(lp1586
F0.00010147918472673891
aF-0.00021513692587485711
aa(lp1587
F0.00022513393539582869
aF0.0001001409464482634
aa(lp1588
F8.3468757222972213e-05
aF-0.00013989639816092139
aa(lp1589
F0.00016101292675032959
aF6.3876676032392429e-05
aa(lp1590
F5.9215961614008359e-05
aF-0.0001023236823157886
aa(lp1591
F0.0001121145749895559
aF4.2944068844903358e-05
aa(lp1592
F4.1161837039733161e-05
aF-7.3325127612471324e-05
aa(lp1593
F8.0596374333849995e-05
aF3.1950861368399558e-05
aa(lp1594
F3.0215543747626888e-05
aF-5.3125943850937732e-05
aa(lp1595
F5.9801175763421862e-05
aF2.3848559038968691e-05
aa(lp1596
F-0.8866210449683507
aF-0.2405328468649337
aa(lp1597
F0.23500296665454809
aF0.88810277190496478
aa(lp1598
F0.48124531428383621
aF0.023622366238805981
aa(lp1599
F-0.10131409101323691
aF-0.26435149141725223
aa(lp1600
F-0.096540524679022743
aF0.011290120659767309
aa(lp1601
F-0.034301901530963227
aF0.01331834290764544
aa(lp1602
F-0.0083707045081691245
aF0.02523499558750331
aa(lp1603
F0.002787940728983584
aF0.0056432196231724907
aa(lp1604
F0.0018357911298313571
aF0.0045198179667833016
aa(lp1605
F0.0010577082180431229
aF-0.0012942397985376
aa(lp1606
F-0.0006252943504964914
aF0.00086915143839749742
aa(lp1607
F-0.00045875969762165791
aF-0.00051384331504984032
aa(lp1608
F-0.00064113177013778652
aF0.00092951019330266699
aa(lp1609
F-0.0001826321601959349
aF-6.0572957580884426e-06
aa(lp1610
F-0.00024011957533431709
aF0.00062705116204461037
aa(lp1611
F-2.9459464737108951e-05
aF-3.7620977184016358e-05
aa(lp1612
F-0.0001369369120645392
aF0.0003523492874393545
aa(lp1613
F-3.1720548204619992e-05
aF-5.0226482395508958e-05
aa(lp1614
F-0.0001071798891039103
aF0.00023177891327685879
aa(lp1615
F-2.881551852087702e-05
aF-2.977419954598368e-05
aa(lp1616
F-7.569991991514377e-05
aF0.0001662328624952025
aa(lp1617
F-1.8744118945212409e-05
aF-1.8857494217805731e-05
aa(lp1618
F-5.2962648436727197e-05
aF0.00011907554096619609
aa(lp1619
F-1.295913598690045e-05
aF-1.450571198004409e-05
aa(lp1620
F-3.8847893784374483e-05
aF8.6596210236336568e-05
aa(lp1621
F-9.8177500493885287e-06
aF-1.095800809603961e-05
aa(lp1622
F-0.87503130574365073
aF0.74298832280649663
aasS'viewfile'
p1623
g13
sba(imin_path.mod_minpath
minpath
p1624
(dp1625
g3
F18.684224062779322
sS'symdata'
p1626
S'!!!======================================================================\n!!! generated configuration file\n!!!======================================================================\n0 !! action_type\n4 !! NOB\n2 !! dim\n1  !! sizekerT\n1 !! perm j=1\n2 !! perm j=2\n3 !! perm j=3\n4 !! perm j=4\n1.0D0 !! matrix (j,k)=(1,1)\n0.0D0 !! matrix (j,k)=(1,2)\n0.0D0 !! matrix (j,k)=(2,1)\n1.0D0 !! matrix (j,k)=(2,2)\n6  !! cyclic_order\n1 !! cyclic_perm j=1\n2 !! cyclic_perm j=2\n4 !! cyclic_perm j=3\n3 !! cyclic_perm j=4\n-0.5D0 !! cyclic_matrix (j,k)=(1,1)\n-0.8660254037844386D0  !!! imag= 5.8286708792820718e-16 !! cyclic_matrix (j,k)=(1,2)\n0.8660254037844386D0  !!! imag= -5.8286708792820718e-16 !! cyclic_matrix (j,k)=(2,1)\n-0.5D0 !! cyclic_matrix (j,k)=(2,2)\n1 !! cyclic_perm j=1\n2 !! cyclic_perm j=2\n3 !! cyclic_perm j=3\n4 !! cyclic_perm j=4\n-0.5D0 !! cyclic_matrix (j,k)=(1,1)\n0.8660254037844386D0  !!! imag= -5.8286708792820718e-16 !! cyclic_matrix (j,k)=(1,2)\n-0.8660254037844386D0  !!! imag= 5.8286708792820718e-16 !! cyclic_matrix (j,k)=(2,1)\n-0.5D0 !! cyclic_matrix (j,k)=(2,2)\n1 !! cyclic_perm j=1\n2 !! cyclic_perm j=2\n4 !! cyclic_perm j=3\n3 !! cyclic_perm j=4\n1.0D0 !! cyclic_matrix (j,k)=(1,1)\n0.0D0 !! cyclic_matrix (j,k)=(1,2)\n0.0D0 !! cyclic_matrix (j,k)=(2,1)\n1.0D0 !! cyclic_matrix (j,k)=(2,2)\n1 !! cyclic_perm j=1\n2 !! cyclic_perm j=2\n3 !! cyclic_perm j=3\n4 !! cyclic_perm j=4\n-0.5D0 !! cyclic_matrix (j,k)=(1,1)\n-0.8660254037844386D0  !!! imag= 5.8286708792820718e-16 !! cyclic_matrix (j,k)=(1,2)\n0.8660254037844386D0  !!! imag= -5.8286708792820718e-16 !! cyclic_matrix (j,k)=(2,1)\n-0.5D0 !! cyclic_matrix (j,k)=(2,2)\n1 !! cyclic_perm j=1\n2 !! cyclic_perm j=2\n4 !! cyclic_perm j=3\n3 !! cyclic_perm j=4\n-0.5D0 !! cyclic_matrix (j,k)=(1,1)\n0.8660254037844386D0  !!! imag= -5.8286708792820718e-16 !! cyclic_matrix (j,k)=(1,2)\n-0.8660254037844386D0  !!! imag= 5.8286708792820718e-16 !! cyclic_matrix (j,k)=(2,1)\n-0.5D0 !! cyclic_matrix (j,k)=(2,2)\n1 !! cyclic_perm j=1\n2 !! cyclic_perm j=2\n3 !! cyclic_perm j=3\n4 !! cyclic_perm j=4\n1.0D0 !! cyclic_matrix (j,k)=(1,1)\n0.0D0 !! cyclic_matrix (j,k)=(1,2)\n0.0D0 !! cyclic_matrix (j,k)=(2,1)\n1.0D0 !! cyclic_matrix (j,k)=(2,2)\n'
p1627
sS'TODOLIST'
p1628
(lp1629
S'new()'
p1630
aS'relax(200)'
p1631
asS'NOB'
p1632
I4
sS'withcoll'
p1633
I0
sS'todo'
p1634
g13
sS'omega'
p1635
(lp1636
F0.0
aF0.0
aF0.0
asS'massdata'
p1637
S' 1.000000000000000000000000e+00 !! m(1)\n 1.000000000000000000000000e+00 !! m(2)\n 1.000000000000000000000000e+00 !! m(3)\n 1.000000000000000000000000e+00 !! m(4)\n'
p1638
sS'dim'
p1639
I2
sS'gammadata'
p1640
S' 4 2 24  !! NOB,dim,steps\n 0.000000000000000E+00 0.000000000000000E+00 0.000000000000000E+00  !! omega\n 1.000000000000000  !! ALPHA\n 1.000000000000000  !! m( 1 )\n 1.000000000000000  !! m( 2 )\n 1.000000000000000  !! m( 3 )\n 1.000000000000000  !! m( 4 )\n 0.3322245709871068 0.9162757002925345\n -0.4027090132653282 0.3725720147169111\n -0.3532943474681900 9.874576301578580E-02\n 6.827885054257987E-02 0.2582191360046633\n 0.1369782289687211 -3.888580985398837E-02\n -4.027335962207473E-02 -3.278832027759210E-02\n 3.562358012853209E-02 2.417858609062373E-02\n 4.129715903612552E-03 -3.602848039896801E-02\n -2.644625903659531E-02 5.376233844049338E-03\n 1.411496541389373E-02 1.130088925674330E-02\n -6.148363745788421E-03 -1.241372433698797E-02\n -5.321236411460872E-03 1.150342568425328E-02\n 1.076624749580560E-02 -4.759081076166627E-07\n -5.727265873808257E-03 -5.386346612169048E-03\n 1.533296894451365E-03 6.253078860740537E-03\n 3.554775789649179E-03 -3.909010660257145E-03\n -4.595378856302734E-03 -8.404722577383932E-04\n 2.359851866041096E-03 3.278333669023664E-03\n 2.903019395787791E-04 -3.093772602989514E-03\n -2.284645481500064E-03 1.499031670793321E-03\n 2.456322598569545E-03 9.157786606232869E-04\n -9.755183483973751E-04 -1.857143955858061E-03\n -4.362504595325015E-04 1.616707302013349E-03\n 1.405272634182079E-03 -4.466419866285681E-04\n -1.188429395970046E-03 -7.204414895209676E-04\n -0.9596303188172648 -0.1704229319100461\n 0.9217054525347339 -1.287825894062347\n 0.7402150256124072 2.933647314537746E-02\n -1.537914902470652E-02 -6.937206217860803E-02\n 3.845427018650288E-02 1.727253260648490E-02\n 2.540847787385891E-03 -1.482342146772186E-02\n 7.424674504799805E-03 3.848460999116621E-03\n 1.498900552868332E-03 -5.273838441641809E-03\n 2.466831076641141E-03 1.162696791876749E-03\n 6.869631966252704E-04 -2.225295305725516E-03\n 9.540774281057013E-04 4.012908734503315E-04\n 3.863390901782116E-04 -1.022031245869817E-03\n 4.140820514994259E-04 1.631268067523450E-04\n 2.228567424518643E-04 -5.446883803403579E-04\n 2.313689672778091E-04 9.674610979683307E-05\n 1.219021187812992E-04 -3.328938689080574E-04\n 1.559595356324687E-04 5.966881997733486E-05\n 7.404041715340301E-05 -2.137374811715526E-04\n 1.027726050812916E-04 3.572165776265235E-05\n 5.395599448522817E-05 -1.438661962722687E-04\n 6.805063733178462E-05 2.489827300282584E-05\n 3.851901055612270E-05 -1.028946204408845E-04\n 4.984881444780598E-05 1.903685313615205E-05\n 2.583260987475827E-05 -7.504534623432348E-05\n 3.783095658894519E-05 1.352479709126886E-05\n 1.873605833466185E-05 -5.466981946787575E-05\n 0.6544372136420322 1.442133283732885\n -1.106674891913833 1.041888130705536\n -0.1478832604172084 0.2242235410292403\n 0.4103697495251714 -3.770090422080108E-02\n -8.952056770263662E-02 -0.2439781355646468\n -0.1329877602597274 5.210082375867753E-02\n 3.665137577716690E-02 3.465554362939031E-02\n -3.504314048920848E-02 -2.013536342969607E-02\n -5.199981150729616E-03 3.662584593262483E-02\n 2.660628023294833E-02 -3.711640785577230E-03\n -1.448625541869859E-02 -1.093527294772813E-02\n 6.176222603712533E-03 1.311307534091086E-02\n 5.187665725571708E-03 -1.120857358629906E-02\n -1.077771729277056E-02 3.593558533862562E-04\n 5.652389777297567E-03 5.563716529327030E-03\n -1.530828573812672E-03 -6.028467820808535E-03\n -3.615452701516276E-03 4.018173918194676E-03\n 4.605944171438208E-03 9.842466994390720E-04\n -2.401229403014099E-03 -3.198841708971278E-03\n -2.862908777413707E-04 3.187402546248233E-03\n 2.259715265285928E-03 -1.441868870704941E-03\n -2.455128015378640E-03 -8.484473328527241E-04\n 9.567909629307203E-04 1.896035051591700E-03\n 4.392698441109677E-04 -1.566517209755302E-03\n -1.420833732127087E-03 4.749593300760538E-04\n 1.191464344318123E-03 7.565764814560644E-04\n 0.6541572483107916 0.2076422836577080\n -0.1472551316080063 -0.6703379369357246\n -0.1896227519298712 -0.6261320288915289\n -4.169625303227484E-02 8.327203383623527E-03\n -1.721255302644617E-02 -3.151353304650151E-02\n -6.531316496379613E-03 1.608407563032488E-03\n -3.802690659891972E-03 -5.715684350914865E-03\n -2.079340192192025E-03 1.230615780714039E-03\n -1.396565829524077E-03 -1.760062325533496E-03\n -8.469843929782908E-04 5.607022472534084E-04\n -5.827874233008540E-04 -7.669071824654948E-04\n -4.141979481022129E-04 3.226802419468988E-04\n -2.805113656102476E-04 -4.579789047065019E-04\n -2.113869454868911E-04 1.858084350617045E-04\n -1.564928707670776E-04 -2.741160269548043E-04\n -1.243704394199904E-04 1.082828289760418E-04\n -9.528262376537239E-05 -1.688320779148628E-04\n -8.460573228888726E-05 6.996303947087376E-05\n -6.139506810831641E-05 -1.152136178150243E-04\n -5.796705632262616E-05 5.023625301354973E-05\n -4.312042111764836E-05 -8.206107309120456E-05\n -3.971359374703096E-05 3.556329267032131E-05\n -3.112142898120673E-05 -5.792794886979279E-05\n -2.885199445321757E-05 2.485525397628169E-05\n -2.226985864393558E-05 -4.184214053875798E-05\n -2.177100668273885E-05 1.853482753280677E-05\n -0.3489641431355596 -1.479352635480545\n'
p1641
sS'log'
p1642
g13
sS'SPMETHOD'
p1643
I1
sg23
F1.6718036573125219
sS'masses'
p1644
(lp1645
F1.0
aF1.0
aF1.0
aF1.0
asS'symfilename'
p1646
g13
sS'invalid'
p1647
I0
sS'steps'
p1648
I24
sS'ALPHA'
p1649
F1.0
sS'confdata'
p1650
S'!! CONFIG STRING\n&CONFIG\nCOMMAND=howsol\nSPMETHOD=3\nALG=0\nsteps=24\nALPHA=1.000000000000000000000000e+00\n/\n0.000000000000000000000000e+00 !! omega(1)\n0.000000000000000000000000e+00 !! omega(2)\n0.000000000000000000000000e+00 !! omega(3)\n'
p1651
sS'gamma'
p1652
(lp1653
(lp1654
F0.33222457098710678
aF0.91627570029253447
aa(lp1655
F-0.40270901326532821
aF0.37257201471691109
aa(lp1656
F-0.35329434746819
aF0.098745763015785804
aa(lp1657
F0.068278850542579872
aF0.25821913600466329
aa(lp1658
F0.13697822896872111
aF-0.038885809853988373
aa(lp1659
F-0.040273359622074727
aF-0.032788320277592098
aa(lp1660
F0.03562358012853209
aF0.024178586090623729
aa(lp1661
F0.0041297159036125519
aF-0.036028480398968013
aa(lp1662
F-0.02644625903659531
aF0.0053762338440493376
aa(lp1663
F0.01411496541389373
aF0.0113008892567433
aa(lp1664
F-0.006148363745788421
aF-0.01241372433698797
aa(lp1665
F-0.0053212364114608723
aF0.01150342568425328
aa(lp1666
F0.010766247495805599
aF-4.7590810761666269e-07
aa(lp1667
F-0.0057272658738082571
aF-0.0053863466121690483
aa(lp1668
F0.0015332968944513649
aF0.0062530788607405366
aa(lp1669
F0.003554775789649179
aF-0.0039090106602571451
aa(lp1670
F-0.0045953788563027342
aF-0.00084047225773839322
aa(lp1671
F0.0023598518660410961
aF0.0032783336690236642
aa(lp1672
F0.00029030193957877912
aF-0.0030937726029895141
aa(lp1673
F-0.0022846454815000639
aF0.0014990316707933209
aa(lp1674
F0.002456322598569545
aF0.00091577866062328688
aa(lp1675
F-0.00097551834839737506
aF-0.001857143955858061
aa(lp1676
F-0.00043625045953250152
aF0.001616707302013349
aa(lp1677
F0.001405272634182079
aF-0.00044664198662856808
aa(lp1678
F-0.001188429395970046
aF-0.00072044148952096765
aa(lp1679
F-0.95963031881726479
aF-0.17042293191004609
aa(lp1680
F0.9217054525347339
aF-1.287825894062347
aa(lp1681
F0.74021502561240715
aF0.029336473145377458
aa(lp1682
F-0.01537914902470652
aF-0.069372062178608029
aa(lp1683
F0.038454270186502881
aF0.017272532606484901
aa(lp1684
F0.002540847787385891
aF-0.014823421467721859
aa(lp1685
F0.0074246745047998053
aF0.0038484609991166212
aa(lp1686
F0.0014989005528683319
aF-0.0052738384416418094
aa(lp1687
F0.002466831076641141
aF0.001162696791876749
aa(lp1688
F0.00068696319662527039
aF-0.002225295305725516
aa(lp1689
F0.00095407742810570129
aF0.00040129087345033149
aa(lp1690
F0.00038633909017821161
aF-0.001022031245869817
aa(lp1691
F0.0004140820514994259
aF0.00016312680675234501
aa(lp1692
F0.00022285674245186429
aF-0.00054468838034035794
aa(lp1693
F0.00023136896727780909
aF9.6746109796833069e-05
aa(lp1694
F0.00012190211878129919
aF-0.00033289386890805739
aa(lp1695
F0.00015595953563246869
aF5.9668819977334857e-05
aa(lp1696
F7.404041715340301e-05
aF-0.00021373748117155261
aa(lp1697
F0.0001027726050812916
aF3.5721657762652348e-05
aa(lp1698
F5.395599448522817e-05
aF-0.00014386619627226871
aa(lp1699
F6.8050637331784625e-05
aF2.4898273002825839e-05
aa(lp1700
F3.8519010556122703e-05
aF-0.0001028946204408845
aa(lp1701
F4.9848814447805978e-05
aF1.9036853136152051e-05
aa(lp1702
F2.5832609874758269e-05
aF-7.5045346234323476e-05
aa(lp1703
F3.783095658894519e-05
aF1.352479709126886e-05
aa(lp1704
F1.873605833466185e-05
aF-5.4669819467875753e-05
aa(lp1705
F0.65443721364203222
aF1.4421332837328851
aa(lp1706
F-1.1066748919138329
aF1.0418881307055361
aa(lp1707
F-0.1478832604172084
aF0.2242235410292403
aa(lp1708
F0.41036974952517141
aF-0.037700904220801079
aa(lp1709
F-0.089520567702636625
aF-0.24397813556464679
aa(lp1710
F-0.13298776025972739
aF0.052100823758677528
aa(lp1711
F0.0366513757771669
aF0.034655543629390308
aa(lp1712
F-0.03504314048920848
aF-0.02013536342969607
aa(lp1713
F-0.0051999811507296156
aF0.036625845932624829
aa(lp1714
F0.02660628023294833
aF-0.00371164078557723
aa(lp1715
F-0.01448625541869859
aF-0.01093527294772813
aa(lp1716
F0.0061762226037125334
aF0.01311307534091086
aa(lp1717
F0.0051876657255717079
aF-0.011208573586299061
aa(lp1718
F-0.01077771729277056
aF0.0003593558533862562
aa(lp1719
F0.0056523897772975673
aF0.0055637165293270299
aa(lp1720
F-0.001530828573812672
aF-0.0060284678208085349
aa(lp1721
F-0.003615452701516276
aF0.0040181739181946764
aa(lp1722
F0.0046059441714382081
aF0.00098424669943907202
aa(lp1723
F-0.002401229403014099
aF-0.003198841708971278
aa(lp1724
F-0.00028629087774137071
aF0.003187402546248233
aa(lp1725
F0.002259715265285928
aF-0.0014418688707049411
aa(lp1726
F-0.0024551280153786402
aF-0.00084844733285272412
aa(lp1727
F0.0009567909629307203
aF0.0018960350515917
aa(lp1728
F0.0004392698441109677
aF-0.001566517209755302
aa(lp1729
F-0.0014208337321270871
aF0.00047495933007605379
aa(lp1730
F0.001191464344318123
aF0.00075657648145606438
aa(lp1731
F0.65415724831079158
aF0.20764228365770801
aa(lp1732
F-0.1472551316080063
aF-0.67033793693572463
aa(lp1733
F-0.18962275192987121
aF-0.62613202889152886
aa(lp1734
F-0.041696253032274838
aF0.0083272033836235271
aa(lp1735
F-0.01721255302644617
aF-0.031513533046501507
aa(lp1736
F-0.0065313164963796133
aF0.0016084075630324881
aa(lp1737
F-0.0038026906598919719
aF-0.0057156843509148653
aa(lp1738
F-0.0020793401921920251
aF0.001230615780714039
aa(lp1739
F-0.001396565829524077
aF-0.0017600623255334959
aa(lp1740
F-0.00084698439297829081
aF0.00056070224725340845
aa(lp1741
F-0.00058278742330085398
aF-0.0007669071824654948
aa(lp1742
F-0.00041419794810221289
aF0.00032268024194689882
aa(lp1743
F-0.00028051136561024759
aF-0.00045797890470650188
aa(lp1744
F-0.0002113869454868911
aF0.0001858084350617045
aa(lp1745
F-0.0001564928707670776
aF-0.0002741160269548043
aa(lp1746
F-0.00012437043941999039
aF0.0001082828289760418
aa(lp1747
F-9.5282623765372389e-05
aF-0.00016883207791486279
aa(lp1748
F-8.4605732288887264e-05
aF6.9963039470873761e-05
aa(lp1749
F-6.1395068108316408e-05
aF-0.0001152136178150243
aa(lp1750
F-5.7967056322626158e-05
aF5.0236253013549732e-05
aa(lp1751
F-4.3120421117648362e-05
aF-8.2061073091204556e-05
aa(lp1752
F-3.9713593747030963e-05
aF3.5563292670321312e-05
aa(lp1753
F-3.1121428981206727e-05
aF-5.7927948869792793e-05
aa(lp1754
F-2.885199445321757e-05
aF2.4855253976281692e-05
aa(lp1755
F-2.2269858643935578e-05
aF-4.1842140538757983e-05
aa(lp1756
F-2.1771006682738851e-05
aF1.8534827532806771e-05
aa(lp1757
F-0.34896414313555962
aF-1.4793526354805451
aasS'viewfile'
p1758
g13
sba(imin_path.mod_minpath
minpath
p1759
(dp1760
g3
F18.692399824314599
sS'symdata'
p1761
S'!!!======================================================================\n!!! generated configuration file\n!!!======================================================================\n0 !! action_type\n4 !! NOB\n2 !! dim\n1  !! sizekerT\n1 !! perm j=1\n2 !! perm j=2\n3 !! perm j=3\n4 !! perm j=4\n1.0D0 !! matrix (j,k)=(1,1)\n0.0D0 !! matrix (j,k)=(1,2)\n0.0D0 !! matrix (j,k)=(2,1)\n1.0D0 !! matrix (j,k)=(2,2)\n6  !! cyclic_order\n1 !! cyclic_perm j=1\n2 !! cyclic_perm j=2\n4 !! cyclic_perm j=3\n3 !! cyclic_perm j=4\n-0.5D0 !! cyclic_matrix (j,k)=(1,1)\n-0.8660254037844386D0  !!! imag= 5.8286708792820718e-16 !! cyclic_matrix (j,k)=(1,2)\n0.8660254037844386D0  !!! imag= -5.8286708792820718e-16 !! cyclic_matrix (j,k)=(2,1)\n-0.5D0 !! cyclic_matrix (j,k)=(2,2)\n1 !! cyclic_perm j=1\n2 !! cyclic_perm j=2\n3 !! cyclic_perm j=3\n4 !! cyclic_perm j=4\n-0.5D0 !! cyclic_matrix (j,k)=(1,1)\n0.8660254037844386D0  !!! imag= -5.8286708792820718e-16 !! cyclic_matrix (j,k)=(1,2)\n-0.8660254037844386D0  !!! imag= 5.8286708792820718e-16 !! cyclic_matrix (j,k)=(2,1)\n-0.5D0 !! cyclic_matrix (j,k)=(2,2)\n1 !! cyclic_perm j=1\n2 !! cyclic_perm j=2\n4 !! cyclic_perm j=3\n3 !! cyclic_perm j=4\n1.0D0 !! cyclic_matrix (j,k)=(1,1)\n0.0D0 !! cyclic_matrix (j,k)=(1,2)\n0.0D0 !! cyclic_matrix (j,k)=(2,1)\n1.0D0 !! cyclic_matrix (j,k)=(2,2)\n1 !! cyclic_perm j=1\n2 !! cyclic_perm j=2\n3 !! cyclic_perm j=3\n4 !! cyclic_perm j=4\n-0.5D0 !! cyclic_matrix (j,k)=(1,1)\n-0.8660254037844386D0  !!! imag= 5.8286708792820718e-16 !! cyclic_matrix (j,k)=(1,2)\n0.8660254037844386D0  !!! imag= -5.8286708792820718e-16 !! cyclic_matrix (j,k)=(2,1)\n-0.5D0 !! cyclic_matrix (j,k)=(2,2)\n1 !! cyclic_perm j=1\n2 !! cyclic_perm j=2\n4 !! cyclic_perm j=3\n3 !! cyclic_perm j=4\n-0.5D0 !! cyclic_matrix (j,k)=(1,1)\n0.8660254037844386D0  !!! imag= -5.8286708792820718e-16 !! cyclic_matrix (j,k)=(1,2)\n-0.8660254037844386D0  !!! imag= 5.8286708792820718e-16 !! cyclic_matrix (j,k)=(2,1)\n-0.5D0 !! cyclic_matrix (j,k)=(2,2)\n1 !! cyclic_perm j=1\n2 !! cyclic_perm j=2\n3 !! cyclic_perm j=3\n4 !! cyclic_perm j=4\n1.0D0 !! cyclic_matrix (j,k)=(1,1)\n0.0D0 !! cyclic_matrix (j,k)=(1,2)\n0.0D0 !! cyclic_matrix (j,k)=(2,1)\n1.0D0 !! cyclic_matrix (j,k)=(2,2)\n'
p1762
sS'TODOLIST'
p1763
(lp1764
S'new()'
p1765
aS'relax(200)'
p1766
asS'NOB'
p1767
I4
sS'withcoll'
p1768
I0
sS'todo'
p1769
g13
sS'omega'
p1770
(lp1771
F0.0
aF0.0
aF0.0
asS'massdata'
p1772
S' 1.000000000000000000000000e+00 !! m(1)\n 1.000000000000000000000000e+00 !! m(2)\n 1.000000000000000000000000e+00 !! m(3)\n 1.000000000000000000000000e+00 !! m(4)\n'
p1773
sS'dim'
p1774
I2
sS'gammadata'
p1775
S' 4 2 24  !! NOB,dim,steps\n 0.000000000000000E+00 0.000000000000000E+00 0.000000000000000E+00  !! omega\n 1.000000000000000  !! ALPHA\n 1.000000000000000  !! m( 1 )\n 1.000000000000000  !! m( 2 )\n 1.000000000000000  !! m( 3 )\n 1.000000000000000  !! m( 4 )\n 1.227045535252433 -0.2354677486082949\n 0.2513768270296330 -0.3713772344636810\n 0.2645264409083147 -0.1074813294235790\n 1.025342479923003E-02 6.908517558900473E-02\n -5.395421243341636E-03 -3.673007445659786E-03\n 1.571304923006167E-03 -2.233543547736368E-03\n 6.164520285583341E-03 -1.694635299865688E-03\n 2.574644811986493E-04 2.324897892405475E-03\n 9.002045150677436E-04 -9.901988205221444E-04\n 4.027998069346672E-04 4.514204983602221E-04\n 8.238088072247789E-04 -3.936076980098832E-04\n 1.078043381206872E-04 3.641120775614640E-04\n 3.970009655261258E-04 -2.658063755844806E-04\n 1.049762035463427E-04 1.850311353563117E-04\n 2.621652421305135E-04 -1.532666872728280E-04\n 5.867930861767207E-05 1.231897473551406E-04\n 1.710653704139007E-04 -1.050262197562352E-04\n 4.299471694099721E-05 8.066552485902316E-05\n 1.182877917085268E-04 -6.961615458461745E-05\n 3.139595827713823E-05 5.638908247539848E-05\n 8.398541995626591E-05 -5.135299846508595E-05\n 2.078342475279448E-05 4.033744610042016E-05\n 6.146616804736382E-05 -3.439461515974962E-05\n 1.705456057171477E-05 3.009166220212245E-05\n 4.517537205372263E-05 -2.642131220410621E-05\n -0.4096017155595053 1.180386479433028\n -0.3400663815838035 1.429393169321761\n -0.7138402670877411 0.2068219191552234\n 2.280378764353819E-02 0.1010264454767948\n -1.634886015802595E-02 8.302052805558846E-03\n 3.718408285194763E-03 1.278713971248528E-02\n -9.981588825101473E-04 1.667221716557511E-03\n 1.576890975994172E-03 2.400124846899609E-03\n -1.093701159763018E-03 2.513016632607473E-04\n 4.516006029834374E-04 1.209477256456572E-03\n -5.142608368055301E-04 1.768420106821808E-04\n 2.126045044486737E-04 6.447650706026091E-04\n -2.645330662056078E-04 1.164982814627867E-04\n 1.327681649463050E-04 3.643317225866215E-04\n -1.587870587038231E-04 6.466570477370662E-05\n 8.028085826190627E-05 2.245656827383376E-04\n -1.023988449620344E-04 4.068767383870985E-05\n 5.165079384845603E-05 1.469143745297385E-04\n -6.909650584846667E-05 2.715655654246703E-05\n 3.526973293654923E-05 1.002213711861107E-04\n -4.805707499502473E-05 1.861577235601902E-05\n 2.500809031548770E-05 7.073893477146454E-05\n -3.446540393424718E-05 1.339356247765863E-05\n 1.783315752840187E-05 5.140693962251558E-05\n -2.570172183248738E-05 9.679591633421358E-06\n 1.312156141202760E-05 3.753632125984838E-05\n -1.067857605836695 -1.009202710085507\n -0.6360704657243864 -0.6174398645523336\n 0.8319085195506952 1.026352055542748\n -7.477611093401693E-02 -7.423831764332095E-02\n 7.856713271176055E-02 -7.080856438320543E-02\n 5.860600214472256E-02 -5.007432258429072E-02\n 3.306736101807328E-02 -1.221827749789167E-02\n 1.911923761885803E-02 -3.128895951245747E-02\n 1.620658475243643E-02 -1.802989564326185E-02\n 1.162847364289276E-02 -2.214074006866103E-02\n 7.230839809419576E-03 -1.373359640073022E-02\n 5.014921753703216E-03 -1.638541324242546E-02\n 2.738470774600044E-03 -1.081289737794648E-02\n 1.703314626955933E-03 -1.184677114795557E-02\n 1.871070691501103E-04 -8.007964998071715E-03\n -2.170330327615905E-04 -8.519470411553712E-03\n -1.126515169735116E-03 -5.757071556922565E-03\n -1.213013145943647E-03 -5.973410765894624E-03\n -1.756890109266961E-03 -3.959682014096072E-03\n -1.663466528013913E-03 -4.058428848848399E-03\n -1.965772487705041E-03 -2.572169571528136E-03\n -1.778573075875870E-03 -2.624110601071238E-03\n -1.922919681273266E-03 -1.530353488588437E-03\n -1.695979881427084E-03 -1.578977910163211E-03\n -1.744258041803622E-03 -7.729032892964949E-04\n -1.504547001389498E-03 -8.284393282014647E-04\n 0.6247054805224632 7.094948029062875E-02\n -0.2509086879442438 -0.5764855561611324\n -0.3694450794925872 -0.8617967402342903\n -0.2125541176178358 8.069320159010498E-02\n -7.247169735296467E-02 -6.578664011358315E-03\n -5.692898918657574E-02 4.096019031746522E-02\n -3.364050705856930E-02 1.278459932907055E-02\n -2.686064888043549E-02 3.058346996542363E-02\n -1.537034807387207E-02 1.545369608759562E-02\n -1.298027876094393E-02 2.192146163272660E-02\n -7.119378779548602E-03 1.310533389168782E-02\n -6.051335065376671E-03 1.613425586983273E-02\n -2.581742046515012E-03 1.033228701892222E-02\n -2.233083757428367E-03 1.174824580095343E-02\n -1.332962139926302E-04 7.758268157941686E-03\n -1.254130676308311E-04 8.448171416088193E-03\n 1.170234706079493E-03 5.593194135728719E-03\n 9.902969816812900E-04 5.931522611121107E-03\n 1.782991898174430E-03 3.851859932694584E-03\n 1.509909003368837E-03 4.027823632246904E-03\n 1.982433604422929E-03 2.497164716696719E-03\n 1.669579565604127E-03 2.604724664764860E-03\n 1.936601660454719E-03 1.476622480010362E-03\n 1.616680555851291E-03 1.561965585700417E-03\n 1.752905203064396E-03 7.331320354609094E-04\n 1.446250067923750E-03 8.173243191457227E-04\n 0.8527538408737370 -0.2421332496381510\n'
p1776
sS'log'
p1777
g13
sS'SPMETHOD'
p1778
I1
sg23
F2.036589896495071e-14
sS'masses'
p1779
(lp1780
F1.0
aF1.0
aF1.0
aF1.0
asS'symfilename'
p1781
g13
sS'invalid'
p1782
I0
sS'steps'
p1783
I24
sS'ALPHA'
p1784
F1.0
sS'confdata'
p1785
S'!! CONFIG STRING\n&CONFIG\nCOMMAND=howsol\nSPMETHOD=3\nALG=0\nsteps=24\nALPHA=1.000000000000000000000000e+00\n/\n0.000000000000000000000000e+00 !! omega(1)\n0.000000000000000000000000e+00 !! omega(2)\n0.000000000000000000000000e+00 !! omega(3)\n'
p1786
sS'gamma'
p1787
(lp1788
(lp1789
F1.227045535252433
aF-0.23546774860829489
aa(lp1790
F0.25137682702963299
aF-0.37137723446368098
aa(lp1791
F0.26452644090831468
aF-0.10748132942357901
aa(lp1792
F0.01025342479923003
aF0.069085175589004733
aa(lp1793
F-0.005395421243341636
aF-0.0036730074456597858
aa(lp1794
F0.0015713049230061671
aF-0.0022335435477363681
aa(lp1795
F0.0061645202855833414
aF-0.0016946352998656879
aa(lp1796
F0.00025746448119864929
aF0.0023248978924054749
aa(lp1797
F0.0009002045150677436
aF-0.00099019882052214445
aa(lp1798
F0.00040279980693466721
aF0.00045142049836022208
aa(lp1799
F0.00082380880722477887
aF-0.00039360769800988321
aa(lp1800
F0.0001078043381206872
aF0.00036411207756146402
aa(lp1801
F0.00039700096552612579
aF-0.00026580637558448061
aa(lp1802
F0.0001049762035463427
aF0.00018503113535631169
aa(lp1803
F0.00026216524213051352
aF-0.000153266687272828
aa(lp1804
F5.8679308617672073e-05
aF0.00012318974735514061
aa(lp1805
F0.0001710653704139007
aF-0.0001050262197562352
aa(lp1806
F4.2994716940997213e-05
aF8.066552485902316e-05
aa(lp1807
F0.0001182877917085268
aF-6.9616154584617451e-05
aa(lp1808
F3.1395958277138231e-05
aF5.6389082475398478e-05
aa(lp1809
F8.3985419956265905e-05
aF-5.1352998465085953e-05
aa(lp1810
F2.0783424752794481e-05
aF4.0337446100420157e-05
aa(lp1811
F6.1466168047363823e-05
aF-3.439461515974962e-05
aa(lp1812
F1.7054560571714769e-05
aF3.0091662202122449e-05
aa(lp1813
F4.5175372053722629e-05
aF-2.6421312204106209e-05
aa(lp1814
F-0.40960171555950531
aF1.1803864794330281
aa(lp1815
F-0.34006638158380348
aF1.429393169321761
aa(lp1816
F-0.71384026708774106
aF0.20682191915522341
aa(lp1817
F0.02280378764353819
aF0.1010264454767948
aa(lp1818
F-0.01634886015802595
aF0.0083020528055588461
aa(lp1819
F0.0037184082851947631
aF0.01278713971248528
aa(lp1820
F-0.00099815888251014728
aF0.001667221716557511
aa(lp1821
F0.001576890975994172
aF0.002400124846899609
aa(lp1822
F-0.001093701159763018
aF0.00025130166326074732
aa(lp1823
F0.0004516006029834374
aF0.0012094772564565719
aa(lp1824
F-0.00051426083680553014
aF0.00017684201068218081
aa(lp1825
F0.0002126045044486737
aF0.0006447650706026091
aa(lp1826
F-0.00026453306620560779
aF0.00011649828146278669
aa(lp1827
F0.000132768164946305
aF0.00036433172258662152
aa(lp1828
F-0.0001587870587038231
aF6.4665704773706617e-05
aa(lp1829
F8.0280858261906271e-05
aF0.0002245656827383376
aa(lp1830
F-0.0001023988449620344
aF4.0687673838709852e-05
aa(lp1831
F5.1650793848456028e-05
aF0.00014691437452973849
aa(lp1832
F-6.9096505848466674e-05
aF2.7156556542467031e-05
aa(lp1833
F3.5269732936549232e-05
aF0.0001002213711861107
aa(lp1834
F-4.8057074995024728e-05
aF1.8615772356019019e-05
aa(lp1835
F2.5008090315487699e-05
aF7.0738934771464538e-05
aa(lp1836
F-3.4465403934247178e-05
aF1.3393562477658629e-05
aa(lp1837
F1.783315752840187e-05
aF5.1406939622515579e-05
aa(lp1838
F-2.5701721832487381e-05
aF9.6795916334213583e-06
aa(lp1839
F1.31215614120276e-05
aF3.7536321259848382e-05
aa(lp1840
F-1.0678576058366951
aF-1.009202710085507
aa(lp1841
F-0.63607046572438641
aF-0.61743986455233357
aa(lp1842
F0.83190851955069522
aF1.0263520555427481
aa(lp1843
F-0.074776110934016926
aF-0.07423831764332095
aa(lp1844
F0.078567132711760551
aF-0.07080856438320543
aa(lp1845
F0.058606002144722558
aF-0.050074322584290717
aa(lp1846
F0.033067361018073282
aF-0.01221827749789167
aa(lp1847
F0.019119237618858032
aF-0.03128895951245747
aa(lp1848
F0.016206584752436429
aF-0.018029895643261851
aa(lp1849
F0.01162847364289276
aF-0.022140740068661031
aa(lp1850
F0.0072308398094195758
aF-0.013733596400730221
aa(lp1851
F0.0050149217537032156
aF-0.01638541324242546
aa(lp1852
F0.0027384707746000441
aF-0.01081289737794648
aa(lp1853
F0.001703314626955933
aF-0.01184677114795557
aa(lp1854
F0.0001871070691501103
aF-0.0080079649980717149
aa(lp1855
F-0.0002170330327615905
aF-0.0085194704115537125
aa(lp1856
F-0.001126515169735116
aF-0.0057570715569225652
aa(lp1857
F-0.0012130131459436469
aF-0.0059734107658946239
aa(lp1858
F-0.001756890109266961
aF-0.0039596820140960724
aa(lp1859
F-0.0016634665280139129
aF-0.0040584288488483989
aa(lp1860
F-0.001965772487705041
aF-0.002572169571528136
aa(lp1861
F-0.0017785730758758699
aF-0.0026241106010712382
aa(lp1862
F-0.001922919681273266
aF-0.001530353488588437
aa(lp1863
F-0.0016959798814270839
aF-0.0015789779101632109
aa(lp1864
F-0.001744258041803622
aF-0.00077290328929649488
aa(lp1865
F-0.0015045470013894981
aF-0.00082843932820146475
aa(lp1866
F0.62470548052246322
aF0.070949480290628752
aa(lp1867
F-0.25090868794424381
aF-0.5764855561611324
aa(lp1868
F-0.3694450794925872
aF-0.86179674023429031
aa(lp1869
F-0.2125541176178358
aF0.080693201590104985
aa(lp1870
F-0.072471697352964673
aF-0.006578664011358315
aa(lp1871
F-0.05692898918657574
aF0.040960190317465221
aa(lp1872
F-0.033640507058569302
aF0.012784599329070549
aa(lp1873
F-0.026860648880435489
aF0.030583469965423628
aa(lp1874
F-0.015370348073872071
aF0.015453696087595619
aa(lp1875
F-0.012980278760943931
aF0.0219214616327266
aa(lp1876
F-0.0071193787795486019
aF0.013105333891687819
aa(lp1877
F-0.0060513350653766708
aF0.01613425586983273
aa(lp1878
F-0.002581742046515012
aF0.01033228701892222
aa(lp1879
F-0.0022330837574283668
aF0.011748245800953429
aa(lp1880
F-0.00013329621399263021
aF0.0077582681579416862
aa(lp1881
F-0.00012541306763083111
aF0.0084481714160881925
aa(lp1882
F0.0011702347060794931
aF0.0055931941357287192
aa(lp1883
F0.00099029698168128996
aF0.0059315226111211067
aa(lp1884
F0.0017829918981744301
aF0.0038518599326945839
aa(lp1885
F0.0015099090033688369
aF0.004027823632246904
aa(lp1886
F0.0019824336044229288
aF0.002497164716696719
aa(lp1887
F0.0016695795656041269
aF0.00260472466476486
aa(lp1888
F0.0019366016604547189
aF0.0014766224800103621
aa(lp1889
F0.0016166805558512911
aF0.001561965585700417
aa(lp1890
F0.0017529052030643959
aF0.00073313203546090944
aa(lp1891
F0.00144625006792375
aF0.00081732431914572268
aa(lp1892
F0.85275384087373696
aF-0.242133249638151
aasS'viewfile'
p1893
g13
sba.