(lp0
(imin_path.mod_minpath
minpath
p1
(dp2
S'a'
p3
F5.5442210995101853
sS'symdata'
p4
S'!!!======================================================================\n!!! generated configuration file\n!!!======================================================================\n0 !! action_type\n4 !! NOB\n2 !! dim\n1  !! sizekerT\n1 !! perm j=1\n2 !! perm j=2\n3 !! perm j=3\n4 !! perm j=4\n1.0D0 !! matrix (j,k)=(1,1)\n0.0D0 !! matrix (j,k)=(1,2)\n0.0D0 !! matrix (j,k)=(2,1)\n1.0D0 !! matrix (j,k)=(2,2)\n12  !! cyclic_order\n3 !! cyclic_perm j=1\n4 !! cyclic_perm j=2\n2 !! cyclic_perm j=3\n1 !! cyclic_perm j=4\n-0.5D0 !! cyclic_matrix (j,k)=(1,1)\n-0.8660254037844386D0  !!! imag= 5.8286708792820718e-16 !! cyclic_matrix (j,k)=(1,2)\n0.8660254037844386D0  !!! imag= -5.8286708792820718e-16 !! cyclic_matrix (j,k)=(2,1)\n-0.5D0 !! cyclic_matrix (j,k)=(2,2)\n2 !! cyclic_perm j=1\n1 !! cyclic_perm j=2\n4 !! cyclic_perm j=3\n3 !! cyclic_perm j=4\n-0.5D0 !! cyclic_matrix (j,k)=(1,1)\n0.8660254037844386D0  !!! imag= -5.8286708792820718e-16 !! cyclic_matrix (j,k)=(1,2)\n-0.8660254037844386D0  !!! imag= 5.8286708792820718e-16 !! cyclic_matrix (j,k)=(2,1)\n-0.5D0 !! cyclic_matrix (j,k)=(2,2)\n4 !! cyclic_perm j=1\n3 !! cyclic_perm j=2\n1 !! cyclic_perm j=3\n2 !! cyclic_perm j=4\n1.0D0 !! cyclic_matrix (j,k)=(1,1)\n0.0D0 !! cyclic_matrix (j,k)=(1,2)\n0.0D0 !! cyclic_matrix (j,k)=(2,1)\n1.0D0 !! cyclic_matrix (j,k)=(2,2)\n1 !! cyclic_perm j=1\n2 !! cyclic_perm j=2\n3 !! cyclic_perm j=3\n4 !! cyclic_perm j=4\n-0.5D0 !! cyclic_matrix (j,k)=(1,1)\n-0.8660254037844386D0  !!! imag= 5.8286708792820718e-16 !! cyclic_matrix (j,k)=(1,2)\n0.8660254037844386D0  !!! imag= -5.8286708792820718e-16 !! cyclic_matrix (j,k)=(2,1)\n-0.5D0 !! cyclic_matrix (j,k)=(2,2)\n3 !! cyclic_perm j=1\n4 !! cyclic_perm j=2\n2 !! cyclic_perm j=3\n1 !! cyclic_perm j=4\n-0.5D0 !! cyclic_matrix (j,k)=(1,1)\n0.8660254037844386D0  !!! imag= -5.8286708792820718e-16 !! cyclic_matrix (j,k)=(1,2)\n-0.8660254037844386D0  !!! imag= 5.8286708792820718e-16 !! cyclic_matrix (j,k)=(2,1)\n-0.5D0 !! cyclic_matrix (j,k)=(2,2)\n2 !! cyclic_perm j=1\n1 !! cyclic_perm j=2\n4 !! cyclic_perm j=3\n3 !! cyclic_perm j=4\n1.0D0 !! cyclic_matrix (j,k)=(1,1)\n0.0D0 !! cyclic_matrix (j,k)=(1,2)\n0.0D0 !! cyclic_matrix (j,k)=(2,1)\n1.0D0 !! cyclic_matrix (j,k)=(2,2)\n4 !! cyclic_perm j=1\n3 !! cyclic_perm j=2\n1 !! cyclic_perm j=3\n2 !! cyclic_perm j=4\n-0.5D0 !! cyclic_matrix (j,k)=(1,1)\n-0.8660254037844386D0  !!! imag= 5.8286708792820718e-16 !! cyclic_matrix (j,k)=(1,2)\n0.8660254037844386D0  !!! imag= -5.8286708792820718e-16 !! cyclic_matrix (j,k)=(2,1)\n-0.5D0 !! cyclic_matrix (j,k)=(2,2)\n1 !! cyclic_perm j=1\n2 !! cyclic_perm j=2\n3 !! cyclic_perm j=3\n4 !! cyclic_perm j=4\n-0.5D0 !! cyclic_matrix (j,k)=(1,1)\n0.8660254037844386D0  !!! imag= -5.8286708792820718e-16 !! cyclic_matrix (j,k)=(1,2)\n-0.8660254037844386D0  !!! imag= 5.8286708792820718e-16 !! cyclic_matrix (j,k)=(2,1)\n-0.5D0 !! cyclic_matrix (j,k)=(2,2)\n3 !! cyclic_perm j=1\n4 !! cyclic_perm j=2\n2 !! cyclic_perm j=3\n1 !! cyclic_perm j=4\n1.0D0 !! cyclic_matrix (j,k)=(1,1)\n0.0D0 !! cyclic_matrix (j,k)=(1,2)\n0.0D0 !! cyclic_matrix (j,k)=(2,1)\n1.0D0 !! cyclic_matrix (j,k)=(2,2)\n2 !! cyclic_perm j=1\n1 !! cyclic_perm j=2\n4 !! cyclic_perm j=3\n3 !! cyclic_perm j=4\n-0.5D0 !! cyclic_matrix (j,k)=(1,1)\n-0.8660254037844386D0  !!! imag= 5.8286708792820718e-16 !! cyclic_matrix (j,k)=(1,2)\n0.8660254037844386D0  !!! imag= -5.8286708792820718e-16 !! cyclic_matrix (j,k)=(2,1)\n-0.5D0 !! cyclic_matrix (j,k)=(2,2)\n4 !! cyclic_perm j=1\n3 !! cyclic_perm j=2\n1 !! cyclic_perm j=3\n2 !! cyclic_perm j=4\n-0.5D0 !! cyclic_matrix (j,k)=(1,1)\n0.8660254037844386D0  !!! imag= -5.8286708792820718e-16 !! cyclic_matrix (j,k)=(1,2)\n-0.8660254037844386D0  !!! imag= 5.8286708792820718e-16 !! cyclic_matrix (j,k)=(2,1)\n-0.5D0 !! cyclic_matrix (j,k)=(2,2)\n1 !! cyclic_perm j=1\n2 !! cyclic_perm j=2\n3 !! cyclic_perm j=3\n4 !! cyclic_perm j=4\n1.0D0 !! cyclic_matrix (j,k)=(1,1)\n0.0D0 !! cyclic_matrix (j,k)=(1,2)\n0.0D0 !! cyclic_matrix (j,k)=(2,1)\n1.0D0 !! cyclic_matrix (j,k)=(2,2)\n'
p5
sS'TODOLIST'
p6
(lp7
S'new()'
p8
aS'relax(200)'
p9
asS'NOB'
p10
I4
sS'withcoll'
p11
I0
sS'todo'
p12
S''
p13
sS'omega'
p14
(lp15
F0.0
aF0.0
aF0.0
asS'massdata'
p16
S' 1.000000000000000000000000e+00 !! m(1)\n 1.000000000000000000000000e+00 !! m(2)\n 1.000000000000000000000000e+00 !! m(3)\n 1.000000000000000000000000e+00 !! m(4)\n'
p17
sS'dim'
p18
I2
sS'gammadata'
p19
S' 4 2 24  !! NOB,dim,steps\n 0.000000000000000E+00 0.000000000000000E+00 0.000000000000000E+00  !! omega\n 1.000000000000000  !! ALPHA\n 1.000000000000000  !! m( 1 )\n 1.000000000000000  !! m( 2 )\n 1.000000000000000  !! m( 3 )\n 1.000000000000000  !! m( 4 )\n -3.208703531692208 0.5413914034818390\n -0.1137926018920403 -1.080249567705849E-02\n -3.538602126869073E-04 3.727534397216736E-03\n -4.098881000520471E-03 -3.891126798620803E-04\n -4.382038058836635E-05 4.616002877674275E-04\n -8.787383425820500E-04 -8.341989712327968E-05\n -1.288160896346230E-05 1.356938101625127E-04\n -3.173979490311563E-04 -3.013104467212112E-05\n -5.379471643751632E-06 5.666691219150845E-05\n -1.476250660218184E-04 -1.401426024527641E-05\n -2.718739885329731E-06 2.863898251678765E-05\n -7.969078323512985E-05 -7.565160887013089E-06\n -1.548234745983590E-06 1.630897757505523E-05\n -4.743040895804906E-05 -4.502637069656813E-06\n -9.562187658906929E-07 1.007272989461683E-05\n -3.022759172546796E-05 -2.869548840485174E-06\n -6.259912410655488E-07 6.594140271563853E-06\n -2.025240816105715E-05 -1.922590290467235E-06\n -4.279326581242346E-07 4.507807451772927E-06\n -1.408963611292460E-05 -1.337549459384801E-06\n -3.023167911998109E-07 3.184580233117238E-06\n -1.008848102492313E-05 -9.577140414052110E-07\n -2.190329662131799E-07 2.307275265253303E-06\n -7.385012252587343E-06 -7.010698549483017E-07\n -1.617943605324718E-07 1.704328497064561E-06\n -3.049514473338661 -1.135493057047938\n 3.208703531673564 -0.5413914034031677\n 0.1137926018960655 1.080249568737912E-02\n 3.538602118624556E-04 -3.727534397348187E-03\n 4.098881000560328E-03 3.891126802483269E-04\n 4.382038049421944E-05 -4.616002877569081E-04\n 8.787383425931800E-04 8.341989720510312E-05\n 1.288160893645612E-05 -1.356938101587102E-04\n 3.173979490353473E-04 3.013104470138070E-05\n 5.379471632538380E-06 -5.666691218986740E-05\n 1.476250660238029E-04 1.401426025884889E-05\n 2.718739879662389E-06 -2.863898251595498E-05\n 7.969078323621578E-05 7.565160894340561E-06\n 1.548234742757004E-06 -1.630897757456951E-05\n 4.743040895882622E-05 4.502637074008610E-06\n 9.562187638957609E-07 -1.007272989417274E-05\n 3.022759172587736E-05 2.869548843256395E-06\n 6.259912375128351E-07 -6.594140271369564E-06\n 2.025240816133558E-05 1.922590292324257E-06\n 4.279326572343214E-07 -4.507807451639353E-06\n 1.408963611311542E-05 1.337549460668497E-06\n 3.023167905708652E-07 -3.184580233022696E-06\n 1.008848102506191E-05 9.577140414052110E-07\n 2.190329657586823E-07 -2.307275265183914E-06\n 7.385012252689692E-06 7.010698556244102E-07\n 1.617943601959354E-07 -1.704328497014254E-06\n 3.049514473397551 1.135493057103417\n 0.5413914034450045 3.208703531643579\n -1.080249567730718E-02 0.1137926018872726\n 3.727534396224530E-03 3.538602113448697E-04\n -3.891126801323086E-04 4.098881000441645E-03\n 4.616002876645098E-04 4.382038045219749E-05\n -8.341989718053944E-05 8.787383425658407E-04\n 1.356938101337649E-04 1.288160892484735E-05\n -3.013104469271055E-05 3.173979490253319E-04\n 5.666691217970365E-05 5.379471627821666E-06\n -1.401426025483127E-05 1.476250660191192E-04\n 2.863898251088005E-05 2.718739877324849E-06\n -7.565160892144401E-06 7.969078323366574E-05\n 1.630897757169680E-05 1.548234741438614E-06\n -4.502637072634208E-06 4.743040895728207E-05\n 1.007272989257332E-05 9.562187632816688E-07\n -2.869548842439340E-06 3.022759172491458E-05\n 6.594140270266280E-06 6.259912377331450E-07\n -1.922590291775217E-06 2.025240816068766E-05\n 4.507807450850922E-06 4.279326568726316E-07\n -1.337549460290327E-06 1.408963611266439E-05\n 3.184580232466392E-06 3.023167903157525E-07\n -9.577140418579738E-07 1.008848102390658E-05\n 2.307275264782326E-06 2.190329655739343E-07\n -7.010698554240496E-07 7.385012252452902E-06\n 1.704328496717616E-06 1.617943600597596E-07\n -1.135493057099097 3.049514473343748\n -0.5413914034263598 -3.208703531722335\n 1.080249567327485E-02 -0.1137926018976003\n -3.727534395400078E-03 -3.538602112129752E-04\n 3.891126800920075E-04 -4.098881000828225E-03\n -4.616002875702518E-04 -4.382038046274461E-05\n 8.341989716940945E-05 -8.787383426476642E-04\n -1.356938101067656E-04 -1.288160892864987E-05\n 3.013104468851946E-05 -3.173979490545906E-04\n -5.666691216843489E-05 -5.379471629460980E-06\n 1.401426025283287E-05 -1.476250660326917E-04\n -2.863898250521357E-05 -2.718739878171394E-06\n 7.565160891054995E-06 -7.969078324099321E-05\n -1.630897756847022E-05 -1.548234741910459E-06\n 4.502637072079096E-06 -4.743040896163391E-05\n -1.007272989058533E-05 -9.562187632816688E-07\n 2.869548842016068E-06 -3.022759172768667E-05\n -6.594140270266280E-06 -6.259912379291688E-07\n 1.922590291495926E-06 -2.025240816254381E-05\n -4.507807449960141E-06 -4.279326570070727E-07\n 1.337549460089099E-06 -1.408963611396197E-05\n -3.184580231837880E-06 -3.023167904109454E-07\n 9.577140417174612E-07 -1.008848102657112E-05\n -2.307275264326093E-06 -2.190329656415885E-07\n 7.010698553221346E-07 -7.385012253129878E-06\n -1.704328496379345E-06 -1.617943601109340E-07\n 1.135493057040208 -3.049514473399256\n'
p20
sS'log'
p21
g13
sS'SPMETHOD'
p22
I1
sS'h'
p23
F8.850203142565535e-11
sS'masses'
p24
(lp25
F1.0
aF1.0
aF1.0
aF1.0
asS'symfilename'
p26
g13
sS'invalid'
p27
I0
sS'steps'
p28
I24
sS'ALPHA'
p29
F1.0
sS'confdata'
p30
S'!! CONFIG STRING\n&CONFIG\nCOMMAND=howsol\nSPMETHOD=3\nALG=0\nsteps=24\nALPHA=1.000000000000000000000000e+00\n/\n0.000000000000000000000000e+00 !! omega(1)\n0.000000000000000000000000e+00 !! omega(2)\n0.000000000000000000000000e+00 !! omega(3)\n'
p31
sS'gamma'
p32
(lp33
(lp34
F-3.2087035316922079
aF0.54139140348183901
aa(lp35
F-0.1137926018920403
aF-0.01080249567705849
aa(lp36
F-0.00035386021268690731
aF0.0037275343972167359
aa(lp37
F-0.0040988810005204712
aF-0.00038911267986208031
aa(lp38
F-4.3820380588366348e-05
aF0.00046160028776742751
aa(lp39
F-0.00087873834258204997
aF-8.3419897123279685e-05
aa(lp40
F-1.28816089634623e-05
aF0.0001356938101625127
aa(lp41
F-0.00031739794903115631
aF-3.0131044672121118e-05
aa(lp42
F-5.3794716437516321e-06
aF5.6666912191508448e-05
aa(lp43
F-0.00014762506602181841
aF-1.4014260245276409e-05
aa(lp44
F-2.7187398853297309e-06
aF2.8638982516787651e-05
aa(lp45
F-7.9690783235129847e-05
aF-7.5651608870130893e-06
aa(lp46
F-1.5482347459835899e-06
aF1.6308977575055231e-05
aa(lp47
F-4.7430408958049057e-05
aF-4.5026370696568126e-06
aa(lp48
F-9.5621876589069288e-07
aF1.0072729894616829e-05
aa(lp49
F-3.0227591725467962e-05
aF-2.8695488404851741e-06
aa(lp50
F-6.2599124106554882e-07
aF6.5941402715638531e-06
aa(lp51
F-2.025240816105715e-05
aF-1.922590290467235e-06
aa(lp52
F-4.2793265812423459e-07
aF4.5078074517729272e-06
aa(lp53
F-1.4089636112924599e-05
aF-1.337549459384801e-06
aa(lp54
F-3.0231679119981092e-07
aF3.184580233117238e-06
aa(lp55
F-1.0088481024923129e-05
aF-9.5771404140521099e-07
aa(lp56
F-2.1903296621317991e-07
aF2.307275265253303e-06
aa(lp57
F-7.3850122525873432e-06
aF-7.0106985494830173e-07
aa(lp58
F-1.6179436053247181e-07
aF1.7043284970645609e-06
aa(lp59
F-3.049514473338661
aF-1.135493057047938
aa(lp60
F3.2087035316735641
aF-0.54139140340316771
aa(lp61
F0.11379260189606551
aF0.010802495687379119
aa(lp62
F0.00035386021186245559
aF-0.0037275343973481871
aa(lp63
F0.0040988810005603282
aF0.0003891126802483269
aa(lp64
F4.3820380494219442e-05
aF-0.00046160028775690809
aa(lp65
F0.00087873834259317996
aF8.3419897205103122e-05
aa(lp66
F1.288160893645612e-05
aF-0.00013569381015871021
aa(lp67
F0.00031739794903534729
aF3.0131044701380699e-05
aa(lp68
F5.3794716325383804e-06
aF-5.6666912189867399e-05
aa(lp69
F0.0001476250660238029
aF1.4014260258848891e-05
aa(lp70
F2.7187398796623889e-06
aF-2.863898251595498e-05
aa(lp71
F7.9690783236215784e-05
aF7.5651608943405613e-06
aa(lp72
F1.548234742757004e-06
aF-1.6308977574569509e-05
aa(lp73
F4.743040895882622e-05
aF4.5026370740086104e-06
aa(lp74
F9.5621876389576088e-07
aF-1.007272989417274e-05
aa(lp75
F3.022759172587736e-05
aF2.8695488432563948e-06
aa(lp76
F6.2599123751283514e-07
aF-6.594140271369564e-06
aa(lp77
F2.025240816133558e-05
aF1.9225902923242569e-06
aa(lp78
F4.2793265723432139e-07
aF-4.5078074516393526e-06
aa(lp79
F1.4089636113115421e-05
aF1.337549460668497e-06
aa(lp80
F3.0231679057086519e-07
aF-3.184580233022696e-06
aa(lp81
F1.0088481025061911e-05
aF9.5771404140521099e-07
aa(lp82
F2.1903296575868231e-07
aF-2.307275265183914e-06
aa(lp83
F7.3850122526896919e-06
aF7.0106985562441021e-07
aa(lp84
F1.617943601959354e-07
aF-1.7043284970142539e-06
aa(lp85
F3.0495144733975512
aF1.135493057103417
aa(lp86
F0.54139140344500447
aF3.2087035316435788
aa(lp87
F-0.01080249567730718
aF0.1137926018872726
aa(lp88
F0.00372753439622453
aF0.00035386021134486972
aa(lp89
F-0.0003891126801323086
aF0.0040988810004416454
aa(lp90
F0.00046160028766450978
aF4.3820380452197487e-05
aa(lp91
F-8.3419897180539437e-05
aF0.00087873834256584071
aa(lp92
F0.00013569381013376491
aF1.2881608924847351e-05
aa(lp93
F-3.0131044692710551e-05
aF0.00031739794902533192
aa(lp94
F5.6666912179703648e-05
aF5.3794716278216656e-06
aa(lp95
F-1.4014260254831269e-05
aF0.0001476250660191192
aa(lp96
F2.863898251088005e-05
aF2.718739877324849e-06
aa(lp97
F-7.5651608921444014e-06
aF7.9690783233665741e-05
aa(lp98
F1.63089775716968e-05
aF1.548234741438614e-06
aa(lp99
F-4.502637072634208e-06
aF4.7430408957282072e-05
aa(lp100
F1.007272989257332e-05
aF9.5621876328166877e-07
aa(lp101
F-2.8695488424393401e-06
aF3.0227591724914581e-05
aa(lp102
F6.5941402702662799e-06
aF6.2599123773314502e-07
aa(lp103
F-1.9225902917752169e-06
aF2.0252408160687661e-05
aa(lp104
F4.5078074508509217e-06
aF4.279326568726316e-07
aa(lp105
F-1.3375494602903271e-06
aF1.4089636112664389e-05
aa(lp106
F3.1845802324663918e-06
aF3.0231679031575252e-07
aa(lp107
F-9.5771404185797382e-07
aF1.008848102390658e-05
aa(lp108
F2.307275264782326e-06
aF2.1903296557393431e-07
aa(lp109
F-7.0106985542404965e-07
aF7.3850122524529022e-06
aa(lp110
F1.704328496717616e-06
aF1.6179436005975961e-07
aa(lp111
F-1.1354930570990971
aF3.049514473343748
aa(lp112
F-0.54139140342635983
aF-3.2087035317223349
aa(lp113
F0.01080249567327485
aF-0.11379260189760031
aa(lp114
F-0.0037275343954000779
aF-0.00035386021121297517
aa(lp115
F0.0003891126800920075
aF-0.004098881000828225
aa(lp116
F-0.00046160028757025179
aF-4.3820380462744613e-05
aa(lp117
F8.3419897169409452e-05
aF-0.00087873834264766415
aa(lp118
F-0.0001356938101067656
aF-1.288160892864987e-05
aa(lp119
F3.0131044688519459e-05
aF-0.00031739794905459058
aa(lp120
F-5.6666912168434891e-05
aF-5.3794716294609801e-06
aa(lp121
F1.401426025283287e-05
aF-0.00014762506603269171
aa(lp122
F-2.8638982505213569e-05
aF-2.7187398781713941e-06
aa(lp123
F7.565160891054995e-06
aF-7.9690783240993213e-05
aa(lp124
F-1.6308977568470221e-05
aF-1.548234741910459e-06
aa(lp125
F4.5026370720790956e-06
aF-4.7430408961633911e-05
aa(lp126
F-1.007272989058533e-05
aF-9.5621876328166877e-07
aa(lp127
F2.8695488420160679e-06
aF-3.022759172768667e-05
aa(lp128
F-6.5941402702662799e-06
aF-6.2599123792916878e-07
aa(lp129
F1.922590291495926e-06
aF-2.0252408162543811e-05
aa(lp130
F-4.5078074499601412e-06
aF-4.2793265700707272e-07
aa(lp131
F1.3375494600890989e-06
aF-1.4089636113961969e-05
aa(lp132
F-3.1845802318378798e-06
aF-3.0231679041094542e-07
aa(lp133
F9.5771404171746122e-07
aF-1.008848102657112e-05
aa(lp134
F-2.3072752643260928e-06
aF-2.190329656415885e-07
aa(lp135
F7.0106985532213464e-07
aF-7.385012253129878e-06
aa(lp136
F-1.7043284963793449e-06
aF-1.6179436011093401e-07
aa(lp137
F1.135493057040208
aF-3.0495144733992561
aasS'viewfile'
p138
g13
sba(imin_path.mod_minpath
minpath
p139
(dp140
g3
F8.4503235511907135
sS'symdata'
p141
S'!!!======================================================================\n!!! generated configuration file\n!!!======================================================================\n0 !! action_type\n4 !! NOB\n2 !! dim\n1  !! sizekerT\n1 !! perm j=1\n2 !! perm j=2\n3 !! perm j=3\n4 !! perm j=4\n1.0D0 !! matrix (j,k)=(1,1)\n0.0D0 !! matrix (j,k)=(1,2)\n0.0D0 !! matrix (j,k)=(2,1)\n1.0D0 !! matrix (j,k)=(2,2)\n12  !! cyclic_order\n3 !! cyclic_perm j=1\n4 !! cyclic_perm j=2\n2 !! cyclic_perm j=3\n1 !! cyclic_perm j=4\n-0.5D0 !! cyclic_matrix (j,k)=(1,1)\n-0.8660254037844386D0  !!! imag= 5.8286708792820718e-16 !! cyclic_matrix (j,k)=(1,2)\n0.8660254037844386D0  !!! imag= -5.8286708792820718e-16 !! cyclic_matrix (j,k)=(2,1)\n-0.5D0 !! cyclic_matrix (j,k)=(2,2)\n2 !! cyclic_perm j=1\n1 !! cyclic_perm j=2\n4 !! cyclic_perm j=3\n3 !! cyclic_perm j=4\n-0.5D0 !! cyclic_matrix (j,k)=(1,1)\n0.8660254037844386D0  !!! imag= -5.8286708792820718e-16 !! cyclic_matrix (j,k)=(1,2)\n-0.8660254037844386D0  !!! imag= 5.8286708792820718e-16 !! cyclic_matrix (j,k)=(2,1)\n-0.5D0 !! cyclic_matrix (j,k)=(2,2)\n4 !! cyclic_perm j=1\n3 !! cyclic_perm j=2\n1 !! cyclic_perm j=3\n2 !! cyclic_perm j=4\n1.0D0 !! cyclic_matrix (j,k)=(1,1)\n0.0D0 !! cyclic_matrix (j,k)=(1,2)\n0.0D0 !! cyclic_matrix (j,k)=(2,1)\n1.0D0 !! cyclic_matrix (j,k)=(2,2)\n1 !! cyclic_perm j=1\n2 !! cyclic_perm j=2\n3 !! cyclic_perm j=3\n4 !! cyclic_perm j=4\n-0.5D0 !! cyclic_matrix (j,k)=(1,1)\n-0.8660254037844386D0  !!! imag= 5.8286708792820718e-16 !! cyclic_matrix (j,k)=(1,2)\n0.8660254037844386D0  !!! imag= -5.8286708792820718e-16 !! cyclic_matrix (j,k)=(2,1)\n-0.5D0 !! cyclic_matrix (j,k)=(2,2)\n3 !! cyclic_perm j=1\n4 !! cyclic_perm j=2\n2 !! cyclic_perm j=3\n1 !! cyclic_perm j=4\n-0.5D0 !! cyclic_matrix (j,k)=(1,1)\n0.8660254037844386D0  !!! imag= -5.8286708792820718e-16 !! cyclic_matrix (j,k)=(1,2)\n-0.8660254037844386D0  !!! imag= 5.8286708792820718e-16 !! cyclic_matrix (j,k)=(2,1)\n-0.5D0 !! cyclic_matrix (j,k)=(2,2)\n2 !! cyclic_perm j=1\n1 !! cyclic_perm j=2\n4 !! cyclic_perm j=3\n3 !! cyclic_perm j=4\n1.0D0 !! cyclic_matrix (j,k)=(1,1)\n0.0D0 !! cyclic_matrix (j,k)=(1,2)\n0.0D0 !! cyclic_matrix (j,k)=(2,1)\n1.0D0 !! cyclic_matrix (j,k)=(2,2)\n4 !! cyclic_perm j=1\n3 !! cyclic_perm j=2\n1 !! cyclic_perm j=3\n2 !! cyclic_perm j=4\n-0.5D0 !! cyclic_matrix (j,k)=(1,1)\n-0.8660254037844386D0  !!! imag= 5.8286708792820718e-16 !! cyclic_matrix (j,k)=(1,2)\n0.8660254037844386D0  !!! imag= -5.8286708792820718e-16 !! cyclic_matrix (j,k)=(2,1)\n-0.5D0 !! cyclic_matrix (j,k)=(2,2)\n1 !! cyclic_perm j=1\n2 !! cyclic_perm j=2\n3 !! cyclic_perm j=3\n4 !! cyclic_perm j=4\n-0.5D0 !! cyclic_matrix (j,k)=(1,1)\n0.8660254037844386D0  !!! imag= -5.8286708792820718e-16 !! cyclic_matrix (j,k)=(1,2)\n-0.8660254037844386D0  !!! imag= 5.8286708792820718e-16 !! cyclic_matrix (j,k)=(2,1)\n-0.5D0 !! cyclic_matrix (j,k)=(2,2)\n3 !! cyclic_perm j=1\n4 !! cyclic_perm j=2\n2 !! cyclic_perm j=3\n1 !! cyclic_perm j=4\n1.0D0 !! cyclic_matrix (j,k)=(1,1)\n0.0D0 !! cyclic_matrix (j,k)=(1,2)\n0.0D0 !! cyclic_matrix (j,k)=(2,1)\n1.0D0 !! cyclic_matrix (j,k)=(2,2)\n2 !! cyclic_perm j=1\n1 !! cyclic_perm j=2\n4 !! cyclic_perm j=3\n3 !! cyclic_perm j=4\n-0.5D0 !! cyclic_matrix (j,k)=(1,1)\n-0.8660254037844386D0  !!! imag= 5.8286708792820718e-16 !! cyclic_matrix (j,k)=(1,2)\n0.8660254037844386D0  !!! imag= -5.8286708792820718e-16 !! cyclic_matrix (j,k)=(2,1)\n-0.5D0 !! cyclic_matrix (j,k)=(2,2)\n4 !! cyclic_perm j=1\n3 !! cyclic_perm j=2\n1 !! cyclic_perm j=3\n2 !! cyclic_perm j=4\n-0.5D0 !! cyclic_matrix (j,k)=(1,1)\n0.8660254037844386D0  !!! imag= -5.8286708792820718e-16 !! cyclic_matrix (j,k)=(1,2)\n-0.8660254037844386D0  !!! imag= 5.8286708792820718e-16 !! cyclic_matrix (j,k)=(2,1)\n-0.5D0 !! cyclic_matrix (j,k)=(2,2)\n1 !! cyclic_perm j=1\n2 !! cyclic_perm j=2\n3 !! cyclic_perm j=3\n4 !! cyclic_perm j=4\n1.0D0 !! cyclic_matrix (j,k)=(1,1)\n0.0D0 !! cyclic_matrix (j,k)=(1,2)\n0.0D0 !! cyclic_matrix (j,k)=(2,1)\n1.0D0 !! cyclic_matrix (j,k)=(2,2)\n'
p142
sS'TODOLIST'
p143
(lp144
S'new()'
p145
aS'relax(200)'
p146
asS'NOB'
p147
I4
sS'withcoll'
p148
I0
sS'todo'
p149
g13
sS'omega'
p150
(lp151
F0.0
aF0.0
aF0.0
asS'massdata'
p152
S' 1.000000000000000000000000e+00 !! m(1)\n 1.000000000000000000000000e+00 !! m(2)\n 1.000000000000000000000000e+00 !! m(3)\n 1.000000000000000000000000e+00 !! m(4)\n'
p153
sS'dim'
p154
I2
sS'gammadata'
p155
S' 4 2 24  !! NOB,dim,steps\n 0.000000000000000E+00 0.000000000000000E+00 0.000000000000000E+00  !! omega\n 1.000000000000000  !! ALPHA\n 1.000000000000000  !! m( 1 )\n 1.000000000000000  !! m( 2 )\n 1.000000000000000  !! m( 3 )\n 1.000000000000000  !! m( 4 )\n 2.735101145869788 -1.500493669076364\n 0.1750627203305731 -0.1161127288395278\n -2.621889332068521E-03 -3.974650617558972E-03\n 6.212243117168038E-03 -4.129068285448845E-03\n -2.722953627531527E-04 -4.123028535524507E-04\n 1.334018978350338E-03 -8.871239865374317E-04\n -7.577394633125718E-05 -1.144449183895111E-04\n 4.832242974188794E-04 -3.213588809219965E-04\n -3.108696490972725E-05 -4.689916051184989E-05\n 2.250971796249935E-04 -1.496955826959349E-04\n -1.559406784174683E-05 -2.351450024668227E-05\n 1.216105803933089E-04 -8.087374699250818E-05\n -8.846022086265830E-06 -1.333586485870847E-05\n 7.241423326295737E-05 -4.815691303527634E-05\n -5.451006380010302E-06 -8.216595592912192E-06\n 4.616342979609867E-05 -3.069954305798663E-05\n -3.563288881850996E-06 -5.370687153339679E-06\n 3.093542978487083E-05 -2.057261406362369E-05\n -2.433462671356450E-06 -3.667576283849529E-06\n 2.152479117243939E-05 -1.431435980364822E-05\n -1.717921516915656E-06 -2.589051211644719E-06\n 1.541378792562637E-05 -1.025043027258726E-05\n -1.244009680754682E-06 -1.874772299390119E-06\n 1.128428963246934E-05 -7.504236761860146E-06\n -9.184046849506166E-07 -1.384030731604136E-06\n 2.435405025624919 -1.941704301667470\n 0.8100545485328379 1.263616388078384\n 0.1907231815774484 -0.1281346926576422\n 4.029981300995689E-03 7.397998573984932E-03\n 1.869149539404204E-02 -1.283879601084950E-02\n 2.777670316980866E-03 4.214946075382198E-03\n 3.705765918145920E-03 -2.567981588376095E-03\n 1.036539556798986E-03 1.536269197002561E-03\n 1.191638759494341E-03 -8.250512966269268E-04\n 4.461817529727305E-04 6.570012723198793E-04\n 5.202539856430911E-04 -3.592013114107123E-04\n 2.240056480194135E-04 3.294413367456728E-04\n 2.726217162879220E-04 -1.878771361676964E-04\n 1.264317881348393E-04 1.859608046668431E-04\n 1.598937487488697E-04 -1.100835464054449E-04\n 7.759713435355096E-05 1.141654521490824E-04\n 1.010745708682530E-04 -6.955261602670660E-05\n 5.059191647249013E-05 7.445068353843949E-05\n 6.738006988177563E-05 -4.635315507892524E-05\n 3.449237554755693E-05 5.076659473621605E-05\n 4.671951190675762E-05 -3.213437138708760E-05\n 2.432448482745108E-05 3.580502493114867E-05\n 3.337587547814352E-05 -2.295380741853230E-05\n 1.760381900781758E-05 2.591443251745844E-05\n 2.440153421542923E-05 -1.678041863577432E-05\n 1.298911107575323E-05 1.912257915870547E-05\n -0.8679689213472432 -1.246929230555255\n -2.899267764694012 -1.138270469861736\n -0.2995990121475239 -4.991572459598270E-02\n 3.013426966306556E-02 -2.260541925244952E-02\n -1.443330385426625E-02 5.641617380135439E-03\n 2.972371818564133E-03 -4.810381363843683E-03\n -2.580581042678165E-03 1.627593529880244E-03\n 6.198935612456648E-04 -1.470460223724735E-03\n -8.296112236464535E-04 5.753905632562063E-04\n 2.154716628864680E-04 -5.963534425718550E-04\n -3.685163328573009E-04 2.555450807779254E-04\n 1.012065751596781E-04 -2.940953445778683E-04\n -1.956406669973055E-04 1.338022443279764E-04\n 5.598435389011667E-05 -1.650725054590679E-04\n -1.156528115293792E-04 7.824479133701587E-05\n 3.411511546044332E-05 -1.011065380405113E-04\n -7.345782147177523E-05 4.934812991894014E-05\n 2.216707301695730E-05 -6.585556030254274E-05\n -4.911846892377298E-05 3.284662090144962E-05\n 1.508126236115831E-05 -4.487221453527382E-05\n -3.412628360261469E-05 2.275216354459672E-05\n 1.061871748052819E-05 -3.163096566267085E-05\n -2.441225889873722E-05 1.624412909188768E-05\n 7.676413727350325E-06 -2.288511110460728E-05\n -1.786269197490001E-05 1.187083814091943E-05\n 5.669601371055861E-06 -1.688925697098124E-05\n -1.499351166980635 6.971962344138038E-02\n -0.6458879297086133 1.375147750859717\n -6.618688976049764E-02 0.2941631460931533\n -3.154236163199274E-02 1.918207129602356E-02\n -1.047043465694382E-02 1.132624691616291E-02\n -5.477746772791846E-03 1.007738142013936E-03\n -2.459203853818093E-03 1.827512045033283E-03\n -1.580659171713394E-03 4.863594511168466E-05\n -8.452518332667667E-04 5.710196142927166E-04\n -6.305664509494678E-04 -1.374866923617088E-05\n -3.768348324107839E-04 2.533518133287244E-04\n -3.096181553373517E-04 -1.183149192112397E-05\n -1.985916296839250E-04 1.349486388322278E-04\n -1.735701199386897E-04 -7.552434349067643E-06\n -1.166551704824478E-04 7.999566810370541E-05\n -1.062612434339837E-04 -4.842318515658854E-06\n -7.378017919257632E-05 5.090402916575277E-05\n -6.919570060759600E-05 -3.224436082557063E-06\n -4.919703074287348E-05 3.407914824109888E-05\n -4.714017523735879E-05 -2.226803917092810E-06\n -3.411801947658276E-05 2.369656764613910E-05\n -3.322528079106359E-05 -1.585008056833100E-06\n -2.437740450503267E-05 1.696010859923188E-05\n -2.403622305441324E-05 -1.154549113461064E-06\n -1.782313187299845E-05 1.241381725671504E-05\n -1.774030776185847E-05 -8.492914561200940E-07\n -6.808493729704157E-02 3.118913908781345\n'
p156
sS'log'
p157
g13
sS'SPMETHOD'
p158
I1
sg23
F2.104228167938282e-06
sS'masses'
p159
(lp160
F1.0
aF1.0
aF1.0
aF1.0
asS'symfilename'
p161
g13
sS'invalid'
p162
I0
sS'steps'
p163
I24
sS'ALPHA'
p164
F1.0
sS'confdata'
p165
S'!! CONFIG STRING\n&CONFIG\nCOMMAND=howsol\nSPMETHOD=3\nALG=0\nsteps=24\nALPHA=1.000000000000000000000000e+00\n/\n0.000000000000000000000000e+00 !! omega(1)\n0.000000000000000000000000e+00 !! omega(2)\n0.000000000000000000000000e+00 !! omega(3)\n'
p166
sS'gamma'
p167
(lp168
(lp169
F2.735101145869788
aF-1.5004936690763639
aa(lp170
F0.1750627203305731
aF-0.11611272883952781
aa(lp171
F-0.0026218893320685212
aF-0.0039746506175589724
aa(lp172
F0.0062122431171680384
aF-0.0041290682854488447
aa(lp173
F-0.00027229536275315269
aF-0.00041230285355245069
aa(lp174
F0.001334018978350338
aF-0.00088712398653743169
aa(lp175
F-7.577394633125718e-05
aF-0.0001144449183895111
aa(lp176
F0.00048322429741887938
aF-0.00032135888092199648
aa(lp177
F-3.1086964909727247e-05
aF-4.6899160511849891e-05
aa(lp178
F0.00022509717962499351
aF-0.00014969558269593489
aa(lp179
F-1.5594067841746832e-05
aF-2.3514500246682269e-05
aa(lp180
F0.0001216105803933089
aF-8.0873746992508183e-05
aa(lp181
F-8.8460220862658298e-06
aF-1.333586485870847e-05
aa(lp182
F7.2414233262957373e-05
aF-4.8156913035276342e-05
aa(lp183
F-5.4510063800103023e-06
aF-8.2165955929121921e-06
aa(lp184
F4.6163429796098673e-05
aF-3.0699543057986633e-05
aa(lp185
F-3.5632888818509958e-06
aF-5.3706871533396792e-06
aa(lp186
F3.0935429784870827e-05
aF-2.0572614063623689e-05
aa(lp187
F-2.43346267135645e-06
aF-3.667576283849529e-06
aa(lp188
F2.1524791172439391e-05
aF-1.431435980364822e-05
aa(lp189
F-1.717921516915656e-06
aF-2.5890512116447192e-06
aa(lp190
F1.5413787925626369e-05
aF-1.025043027258726e-05
aa(lp191
F-1.244009680754682e-06
aF-1.874772299390119e-06
aa(lp192
F1.128428963246934e-05
aF-7.5042367618601458e-06
aa(lp193
F-9.1840468495061662e-07
aF-1.3840307316041361e-06
aa(lp194
F2.4354050256249189
aF-1.94170430166747
aa(lp195
F0.81005454853283787
aF1.2636163880783839
aa(lp196
F0.19072318157744839
aF-0.12813469265764221
aa(lp197
F0.0040299813009956886
aF0.0073979985739849319
aa(lp198
F0.018691495394042041
aF-0.0128387960108495
aa(lp199
F0.0027776703169808659
aF0.0042149460753821977
aa(lp200
F0.0037057659181459202
aF-0.0025679815883760948
aa(lp201
F0.001036539556798986
aF0.001536269197002561
aa(lp202
F0.001191638759494341
aF-0.00082505129662692684
aa(lp203
F0.00044618175297273047
aF0.00065700127231987926
aa(lp204
F0.00052025398564309105
aF-0.00035920131141071229
aa(lp205
F0.00022400564801941349
aF0.00032944133674567277
aa(lp206
F0.00027262171628792201
aF-0.0001878771361676964
aa(lp207
F0.0001264317881348393
aF0.0001859608046668431
aa(lp208
F0.00015989374874886969
aF-0.00011008354640544489
aa(lp209
F7.7597134353550958e-05
aF0.00011416545214908241
aa(lp210
F0.00010107457086825299
aF-6.9552616026706602e-05
aa(lp211
F5.0591916472490133e-05
aF7.4450683538439494e-05
aa(lp212
F6.7380069881775627e-05
aF-4.6353155078925241e-05
aa(lp213
F3.4492375547556927e-05
aF5.0766594736216053e-05
aa(lp214
F4.6719511906757622e-05
aF-3.2134371387087602e-05
aa(lp215
F2.4324484827451081e-05
aF3.5805024931148671e-05
aa(lp216
F3.3375875478143517e-05
aF-2.2953807418532301e-05
aa(lp217
F1.760381900781758e-05
aF2.5914432517458439e-05
aa(lp218
F2.440153421542923e-05
aF-1.678041863577432e-05
aa(lp219
F1.298911107575323e-05
aF1.9122579158705471e-05
aa(lp220
F-0.86796892134724324
aF-1.2469292305552551
aa(lp221
F-2.8992677646940122
aF-1.1382704698617361
aa(lp222
F-0.29959901214752388
aF-0.049915724595982702
aa(lp223
F0.030134269663065559
aF-0.022605419252449521
aa(lp224
F-0.01443330385426625
aF0.0056416173801354394
aa(lp225
F0.0029723718185641328
aF-0.0048103813638436833
aa(lp226
F-0.002580581042678165
aF0.0016275935298802439
aa(lp227
F0.00061989356124566479
aF-0.001470460223724735
aa(lp228
F-0.00082961122364645353
aF0.00057539056325620628
aa(lp229
F0.000215471662886468
aF-0.00059635344257185502
aa(lp230
F-0.00036851633285730091
aF0.0002555450807779254
aa(lp231
F0.0001012065751596781
aF-0.00029409534457786832
aa(lp232
F-0.0001956406669973055
aF0.00013380224432797639
aa(lp233
F5.5984353890116672e-05
aF-0.00016507250545906791
aa(lp234
F-0.0001156528115293792
aF7.8244791337015872e-05
aa(lp235
F3.4115115460443318e-05
aF-0.0001011065380405113
aa(lp236
F-7.3457821471775231e-05
aF4.9348129918940138e-05
aa(lp237
F2.2167073016957301e-05
aF-6.5855560302542738e-05
aa(lp238
F-4.911846892377298e-05
aF3.2846620901449623e-05
aa(lp239
F1.508126236115831e-05
aF-4.4872214535273823e-05
aa(lp240
F-3.4126283602614691e-05
aF2.2752163544596721e-05
aa(lp241
F1.061871748052819e-05
aF-3.1630965662670853e-05
aa(lp242
F-2.4412258898737219e-05
aF1.6244129091887681e-05
aa(lp243
F7.6764137273503246e-06
aF-2.288511110460728e-05
aa(lp244
F-1.7862691974900011e-05
aF1.187083814091943e-05
aa(lp245
F5.6696013710558609e-06
aF-1.6889256970981241e-05
aa(lp246
F-1.499351166980635
aF0.069719623441380385
aa(lp247
F-0.64588792970861331
aF1.375147750859717
aa(lp248
F-0.066186889760497636
aF0.2941631460931533
aa(lp249
F-0.031542361631992741
aF0.019182071296023558
aa(lp250
F-0.010470434656943819
aF0.011326246916162909
aa(lp251
F-0.0054777467727918456
aF0.001007738142013936
aa(lp252
F-0.0024592038538180931
aF0.001827512045033283
aa(lp253
F-0.001580659171713394
aF4.8635945111684658e-05
aa(lp254
F-0.00084525183326676666
aF0.0005710196142927166
aa(lp255
F-0.00063056645094946781
aF-1.374866923617088e-05
aa(lp256
F-0.0003768348324107839
aF0.00025335181332872438
aa(lp257
F-0.00030961815533735171
aF-1.183149192112397e-05
aa(lp258
F-0.00019859162968392501
aF0.00013494863883222781
aa(lp259
F-0.00017357011993868971
aF-7.5524343490676431e-06
aa(lp260
F-0.00011665517048244779
aF7.9995668103705411e-05
aa(lp261
F-0.0001062612434339837
aF-4.8423185156588541e-06
aa(lp262
F-7.378017919257632e-05
aF5.0904029165752772e-05
aa(lp263
F-6.9195700607596004e-05
aF-3.2244360825570629e-06
aa(lp264
F-4.9197030742873481e-05
aF3.4079148241098877e-05
aa(lp265
F-4.7140175237358789e-05
aF-2.22680391709281e-06
aa(lp266
F-3.4118019476582762e-05
aF2.36965676461391e-05
aa(lp267
F-3.3225280791063592e-05
aF-1.5850080568331e-06
aa(lp268
F-2.437740450503267e-05
aF1.6960108599231879e-05
aa(lp269
F-2.4036223054413239e-05
aF-1.1545491134610641e-06
aa(lp270
F-1.7823131872998451e-05
aF1.241381725671504e-05
aa(lp271
F-1.7740307761858471e-05
aF-8.4929145612009402e-07
aa(lp272
F-0.06808493729704157
aF3.1189139087813449
aasS'viewfile'
p273
g13
sba(imin_path.mod_minpath
minpath
p274
(dp275
g3
F11.45285313818899
sS'symdata'
p276
S'!!!======================================================================\n!!! generated configuration file\n!!!======================================================================\n0 !! action_type\n4 !! NOB\n2 !! dim\n1  !! sizekerT\n1 !! perm j=1\n2 !! perm j=2\n3 !! perm j=3\n4 !! perm j=4\n1.0D0 !! matrix (j,k)=(1,1)\n0.0D0 !! matrix (j,k)=(1,2)\n0.0D0 !! matrix (j,k)=(2,1)\n1.0D0 !! matrix (j,k)=(2,2)\n12  !! cyclic_order\n3 !! cyclic_perm j=1\n4 !! cyclic_perm j=2\n2 !! cyclic_perm j=3\n1 !! cyclic_perm j=4\n-0.5D0 !! cyclic_matrix (j,k)=(1,1)\n-0.8660254037844386D0  !!! imag= 5.8286708792820718e-16 !! cyclic_matrix (j,k)=(1,2)\n0.8660254037844386D0  !!! imag= -5.8286708792820718e-16 !! cyclic_matrix (j,k)=(2,1)\n-0.5D0 !! cyclic_matrix (j,k)=(2,2)\n2 !! cyclic_perm j=1\n1 !! cyclic_perm j=2\n4 !! cyclic_perm j=3\n3 !! cyclic_perm j=4\n-0.5D0 !! cyclic_matrix (j,k)=(1,1)\n0.8660254037844386D0  !!! imag= -5.8286708792820718e-16 !! cyclic_matrix (j,k)=(1,2)\n-0.8660254037844386D0  !!! imag= 5.8286708792820718e-16 !! cyclic_matrix (j,k)=(2,1)\n-0.5D0 !! cyclic_matrix (j,k)=(2,2)\n4 !! cyclic_perm j=1\n3 !! cyclic_perm j=2\n1 !! cyclic_perm j=3\n2 !! cyclic_perm j=4\n1.0D0 !! cyclic_matrix (j,k)=(1,1)\n0.0D0 !! cyclic_matrix (j,k)=(1,2)\n0.0D0 !! cyclic_matrix (j,k)=(2,1)\n1.0D0 !! cyclic_matrix (j,k)=(2,2)\n1 !! cyclic_perm j=1\n2 !! cyclic_perm j=2\n3 !! cyclic_perm j=3\n4 !! cyclic_perm j=4\n-0.5D0 !! cyclic_matrix (j,k)=(1,1)\n-0.8660254037844386D0  !!! imag= 5.8286708792820718e-16 !! cyclic_matrix (j,k)=(1,2)\n0.8660254037844386D0  !!! imag= -5.8286708792820718e-16 !! cyclic_matrix (j,k)=(2,1)\n-0.5D0 !! cyclic_matrix (j,k)=(2,2)\n3 !! cyclic_perm j=1\n4 !! cyclic_perm j=2\n2 !! cyclic_perm j=3\n1 !! cyclic_perm j=4\n-0.5D0 !! cyclic_matrix (j,k)=(1,1)\n0.8660254037844386D0  !!! imag= -5.8286708792820718e-16 !! cyclic_matrix (j,k)=(1,2)\n-0.8660254037844386D0  !!! imag= 5.8286708792820718e-16 !! cyclic_matrix (j,k)=(2,1)\n-0.5D0 !! cyclic_matrix (j,k)=(2,2)\n2 !! cyclic_perm j=1\n1 !! cyclic_perm j=2\n4 !! cyclic_perm j=3\n3 !! cyclic_perm j=4\n1.0D0 !! cyclic_matrix (j,k)=(1,1)\n0.0D0 !! cyclic_matrix (j,k)=(1,2)\n0.0D0 !! cyclic_matrix (j,k)=(2,1)\n1.0D0 !! cyclic_matrix (j,k)=(2,2)\n4 !! cyclic_perm j=1\n3 !! cyclic_perm j=2\n1 !! cyclic_perm j=3\n2 !! cyclic_perm j=4\n-0.5D0 !! cyclic_matrix (j,k)=(1,1)\n-0.8660254037844386D0  !!! imag= 5.8286708792820718e-16 !! cyclic_matrix (j,k)=(1,2)\n0.8660254037844386D0  !!! imag= -5.8286708792820718e-16 !! cyclic_matrix (j,k)=(2,1)\n-0.5D0 !! cyclic_matrix (j,k)=(2,2)\n1 !! cyclic_perm j=1\n2 !! cyclic_perm j=2\n3 !! cyclic_perm j=3\n4 !! cyclic_perm j=4\n-0.5D0 !! cyclic_matrix (j,k)=(1,1)\n0.8660254037844386D0  !!! imag= -5.8286708792820718e-16 !! cyclic_matrix (j,k)=(1,2)\n-0.8660254037844386D0  !!! imag= 5.8286708792820718e-16 !! cyclic_matrix (j,k)=(2,1)\n-0.5D0 !! cyclic_matrix (j,k)=(2,2)\n3 !! cyclic_perm j=1\n4 !! cyclic_perm j=2\n2 !! cyclic_perm j=3\n1 !! cyclic_perm j=4\n1.0D0 !! cyclic_matrix (j,k)=(1,1)\n0.0D0 !! cyclic_matrix (j,k)=(1,2)\n0.0D0 !! cyclic_matrix (j,k)=(2,1)\n1.0D0 !! cyclic_matrix (j,k)=(2,2)\n2 !! cyclic_perm j=1\n1 !! cyclic_perm j=2\n4 !! cyclic_perm j=3\n3 !! cyclic_perm j=4\n-0.5D0 !! cyclic_matrix (j,k)=(1,1)\n-0.8660254037844386D0  !!! imag= 5.8286708792820718e-16 !! cyclic_matrix (j,k)=(1,2)\n0.8660254037844386D0  !!! imag= -5.8286708792820718e-16 !! cyclic_matrix (j,k)=(2,1)\n-0.5D0 !! cyclic_matrix (j,k)=(2,2)\n4 !! cyclic_perm j=1\n3 !! cyclic_perm j=2\n1 !! cyclic_perm j=3\n2 !! cyclic_perm j=4\n-0.5D0 !! cyclic_matrix (j,k)=(1,1)\n0.8660254037844386D0  !!! imag= -5.8286708792820718e-16 !! cyclic_matrix (j,k)=(1,2)\n-0.8660254037844386D0  !!! imag= 5.8286708792820718e-16 !! cyclic_matrix (j,k)=(2,1)\n-0.5D0 !! cyclic_matrix (j,k)=(2,2)\n1 !! cyclic_perm j=1\n2 !! cyclic_perm j=2\n3 !! cyclic_perm j=3\n4 !! cyclic_perm j=4\n1.0D0 !! cyclic_matrix (j,k)=(1,1)\n0.0D0 !! cyclic_matrix (j,k)=(1,2)\n0.0D0 !! cyclic_matrix (j,k)=(2,1)\n1.0D0 !! cyclic_matrix (j,k)=(2,2)\n'
p277
sS'TODOLIST'
p278
(lp279
S'new()'
p280
aS'relax(200)'
p281
asS'NOB'
p282
I4
sS'withcoll'
p283
I0
sS'todo'
p284
g13
sS'omega'
p285
(lp286
F0.0
aF0.0
aF0.0
asS'massdata'
p287
S' 1.000000000000000000000000e+00 !! m(1)\n 1.000000000000000000000000e+00 !! m(2)\n 1.000000000000000000000000e+00 !! m(3)\n 1.000000000000000000000000e+00 !! m(4)\n'
p288
sS'dim'
p289
I2
sS'gammadata'
p290
S' 4 2 24  !! NOB,dim,steps\n 0.000000000000000E+00 0.000000000000000E+00 0.000000000000000E+00  !! omega\n 1.000000000000000  !! ALPHA\n 1.000000000000000  !! m( 1 )\n 1.000000000000000  !! m( 2 )\n 1.000000000000000  !! m( 3 )\n 1.000000000000000  !! m( 4 )\n 2.403675934820389 8.886081539042512E-02\n 6.472158814284712E-02 -0.3779941062491653\n -3.781218779727469E-02 -0.1684974745169540\n -4.664078168658037E-02 2.294989106887235E-02\n -8.863543727992196E-03 9.072821708963502E-02\n 3.905340092711888E-02 5.188881564023162E-02\n 3.917026080983529E-02 -1.565033314607045E-02\n 5.746763508036684E-03 -4.488635947994188E-02\n -2.528877309674951E-02 -2.384220537330861E-02\n -2.451000113165458E-02 1.279331169185796E-02\n -1.161400452046477E-03 2.742892998326016E-02\n 1.855201272757301E-02 1.275226195185606E-02\n 1.634388078622243E-02 -9.976271036894913E-03\n -5.657122326737651E-04 -1.767145194368885E-02\n -1.341452717369895E-02 -6.839552917699540E-03\n -1.064653618221967E-02 7.936821783973379E-03\n 1.640183343408277E-03 1.184852864547201E-02\n 9.948022104781379E-03 3.662867222935070E-03\n 7.035820898033118E-03 -6.178901044507509E-03\n -1.917213400492003E-03 -7.993967964908449E-03\n -7.229669695558535E-03 -1.787890734155105E-03\n -4.494770368343337E-03 4.825042944860775E-03\n 1.960745970392627E-03 5.460354303021289E-03\n 5.261640391989238E-03 7.473249719314803E-04\n 2.851446633110349E-03 -3.710546004875876E-03\n 0.4102800739781341 1.259497346913487\n -1.948420302476310 -2.052577942948409\n -0.1151526282892450 -0.1170477279096987\n -4.735229046293088E-03 6.495007238417304E-04\n -4.638594749957203E-03 -4.568980245062304E-03\n -7.060375750431169E-04 8.986413286232731E-05\n -1.062991180574346E-03 -9.933198580332758E-04\n -2.290584579348609E-04 1.471373143072108E-05\n -3.841919679432315E-04 -3.645774870030816E-04\n -9.147477171106422E-05 6.838151495769385E-06\n -1.774059934599136E-04 -1.677273365996990E-04\n -4.723021843486969E-05 4.252466707599378E-06\n -9.698650890482829E-05 -9.084993354170102E-05\n -2.731541892168898E-05 2.003401974814967E-06\n -5.763237778602659E-05 -5.420676318428075E-05\n -1.674601130452480E-05 1.296225581814969E-06\n -3.673668891925747E-05 -3.451885196725443E-05\n -1.099416460269287E-05 8.269897289470141E-07\n -2.459945517931106E-05 -2.312707682155732E-05\n -7.495558608600072E-06 6.124736696977440E-07\n -1.714789648675323E-05 -1.605785303530893E-05\n -5.365630440255786E-06 4.048024820069163E-07\n -1.232443979364700E-05 -1.155591627886865E-05\n -3.880931251309949E-06 2.668671117769805E-07\n -9.004380845993587E-06 -8.435374038620602E-06\n -2.891676885566352E-06 1.940213338932212E-07\n -1.883281176117913 -2.635618853518402\n 0.8856166614371149 -0.9850616401883667\n 0.1759811093994806 0.3419951937687338\n 3.066556161207479E-02 0.1723163043558774\n 5.825942714712973E-02 -2.515098915742880E-02\n 7.622678965143043E-03 -9.008354469746566E-02\n -3.638823153251802E-02 -5.236112166262055E-02\n -3.957783441554472E-02 1.586271324306751E-02\n -4.761042641079682E-03 4.470966995252673E-02\n 2.510957724968527E-02 2.392863794938790E-02\n 2.497416023597838E-02 -1.287779848205917E-02\n 1.068724842645780E-03 -2.738421447095890E-02\n -1.829967622014250E-02 -1.279727018925489E-02\n -1.639742361476282E-02 1.000209982841027E-02\n 7.165229975340803E-04 1.764443924482566E-02\n 1.338114238572652E-02 6.855431210392504E-03\n 1.074288286522499E-02 -7.954057531624582E-03\n -1.662204173240756E-03 -1.183809244536416E-02\n -9.883347336983539E-03 -3.674454873416084E-03\n -7.050925635468205E-03 6.186006442372161E-03\n 1.962293663163087E-03 7.985926253334261E-03\n 7.218960981270714E-03 1.792965647583886E-03\n 4.527101639014312E-03 -4.830766590735280E-03\n -1.968528780713796E-03 -5.456711948925420E-03\n -5.237887344182394E-03 -7.515257880497395E-04\n -2.857281452613047E-03 3.713250781059497E-03\n 2.751794793079084 -0.6610925077196398\n -1.340872293781198 2.948778767746350\n -0.1255500692530827 0.1530466403901301\n 1.188185523149321E-02 -4.468330562765088E-03\n -6.980050710592378E-03 6.770078333618978E-03\n 1.946902337892187E-03 -7.345365250316822E-04\n -1.602178214026487E-03 1.465625880422206E-03\n 6.366320636443101E-04 -2.270938284276713E-04\n -6.015288990137979E-04 5.412670144181453E-04\n 2.706706187752261E-04 -9.327072757492338E-05\n -2.867531108638813E-04 2.522141268009315E-04\n 1.399058278355528E-04 -4.896797900888483E-05\n -1.553499985256779E-04 1.358581709405282E-04\n 8.085824746206782E-05 -2.783219349011823E-05\n -9.317838707439963E-05 8.121946204753261E-05\n 5.013079927701503E-05 -1.717451827476513E-05\n -5.960999408607254E-05 5.175459961844972E-05\n 3.301499443514322E-05 -1.126318983683816E-05\n -4.007531261851494E-05 3.471472730257399E-05\n 2.260029604367331E-05 -7.717871534390630E-06\n -2.793236618432553E-05 2.409956460952545E-05\n 1.607434472806341E-05 -5.479715910781252E-06\n -2.000683087730742E-05 1.727956215338833E-05\n 1.166374157243744E-05 -3.909221207666624E-06\n -1.474866696085653E-05 1.263619015688666E-05\n 8.726496388250515E-06 -2.898797517515879E-06\n -1.278793690939302 2.037214014324552\n'
p291
sS'log'
p292
g13
sS'SPMETHOD'
p293
I1
sg23
F3.1862012391227452e-10
sS'masses'
p294
(lp295
F1.0
aF1.0
aF1.0
aF1.0
asS'symfilename'
p296
g13
sS'invalid'
p297
I0
sS'steps'
p298
I24
sS'ALPHA'
p299
F1.0
sS'confdata'
p300
S'!! CONFIG STRING\n&CONFIG\nCOMMAND=howsol\nSPMETHOD=3\nALG=0\nsteps=24\nALPHA=1.000000000000000000000000e+00\n/\n0.000000000000000000000000e+00 !! omega(1)\n0.000000000000000000000000e+00 !! omega(2)\n0.000000000000000000000000e+00 !! omega(3)\n'
p301
sS'gamma'
p302
(lp303
(lp304
F2.4036759348203889
aF0.088860815390425119
aa(lp305
F0.06472158814284712
aF-0.3779941062491653
aa(lp306
F-0.037812187797274688
aF-0.16849747451695399
aa(lp307
F-0.046640781686580368
aF0.022949891068872349
aa(lp308
F-0.0088635437279921958
aF0.090728217089635022
aa(lp309
F0.039053400927118877
aF0.051888815640231623
aa(lp310
F0.039170260809835288
aF-0.01565033314607045
aa(lp311
F0.0057467635080366841
aF-0.044886359479941879
aa(lp312
F-0.025288773096749512
aF-0.023842205373308611
aa(lp313
F-0.02451000113165458
aF0.01279331169185796
aa(lp314
F-0.001161400452046477
aF0.027428929983260159
aa(lp315
F0.018552012727573008
aF0.01275226195185606
aa(lp316
F0.016343880786222429
aF-0.0099762710368949126
aa(lp317
F-0.00056571223267376514
aF-0.01767145194368885
aa(lp318
F-0.01341452717369895
aF-0.0068395529176995401
aa(lp319
F-0.01064653618221967
aF0.0079368217839733794
aa(lp320
F0.001640183343408277
aF0.01184852864547201
aa(lp321
F0.0099480221047813788
aF0.0036628672229350699
aa(lp322
F0.0070358208980331183
aF-0.0061789010445075093
aa(lp323
F-0.0019172134004920029
aF-0.0079939679649084494
aa(lp324
F-0.0072296696955585346
aF-0.0017878907341551051
aa(lp325
F-0.0044947703683433371
aF0.0048250429448607754
aa(lp326
F0.0019607459703926272
aF0.0054603543030212892
aa(lp327
F0.0052616403919892377
aF0.00074732497193148034
aa(lp328
F0.002851446633110349
aF-0.0037105460048758761
aa(lp329
F0.4102800739781341
aF1.2594973469134869
aa(lp330
F-1.94842030247631
aF-2.052577942948409
aa(lp331
F-0.115152628289245
aF-0.1170477279096987
aa(lp332
F-0.0047352290462930879
aF0.00064950072384173038
aa(lp333
F-0.0046385947499572033
aF-0.004568980245062304
aa(lp334
F-0.00070603757504311693
aF8.9864132862327306e-05
aa(lp335
F-0.001062991180574346
aF-0.00099331985803327583
aa(lp336
F-0.0002290584579348609
aF1.4713731430721079e-05
aa(lp337
F-0.00038419196794323152
aF-0.00036457748700308162
aa(lp338
F-9.1474771711064218e-05
aF6.8381514957693854e-06
aa(lp339
F-0.00017740599345991359
aF-0.00016772733659969899
aa(lp340
F-4.7230218434869693e-05
aF4.2524667075993783e-06
aa(lp341
F-9.6986508904828295e-05
aF-9.0849933541701025e-05
aa(lp342
F-2.731541892168898e-05
aF2.0034019748149672e-06
aa(lp343
F-5.763237778602659e-05
aF-5.4206763184280748e-05
aa(lp344
F-1.6746011304524799e-05
aF1.2962255818149691e-06
aa(lp345
F-3.6736688919257472e-05
aF-3.4518851967254433e-05
aa(lp346
F-1.099416460269287e-05
aF8.2698972894701406e-07
aa(lp347
F-2.4599455179311062e-05
aF-2.3127076821557319e-05
aa(lp348
F-7.4955586086000717e-06
aF6.1247366969774397e-07
aa(lp349
F-1.7147896486753231e-05
aF-1.605785303530893e-05
aa(lp350
F-5.3656304402557864e-06
aF4.0480248200691632e-07
aa(lp351
F-1.2324439793647e-05
aF-1.155591627886865e-05
aa(lp352
F-3.8809312513099492e-06
aF2.6686711177698053e-07
aa(lp353
F-9.004380845993587e-06
aF-8.4353740386206022e-06
aa(lp354
F-2.8916768855663522e-06
aF1.9402133389322121e-07
aa(lp355
F-1.8832811761179129
aF-2.6356188535184022
aa(lp356
F0.88561666143711493
aF-0.98506164018836673
aa(lp357
F0.17598110939948061
aF0.34199519376873377
aa(lp358
F0.030665561612074791
aF0.17231630435587739
aa(lp359
F0.058259427147129728
aF-0.025150989157428801
aa(lp360
F0.0076226789651430427
aF-0.090083544697465656
aa(lp361
F-0.036388231532518023
aF-0.052361121662620552
aa(lp362
F-0.039577834415544723
aF0.015862713243067511
aa(lp363
F-0.0047610426410796816
aF0.044709669952526732
aa(lp364
F0.02510957724968527
aF0.023928637949387901
aa(lp365
F0.024974160235978381
aF-0.01287779848205917
aa(lp366
F0.00106872484264578
aF-0.027384214470958901
aa(lp367
F-0.018299676220142499
aF-0.012797270189254891
aa(lp368
F-0.016397423614762818
aF0.01000209982841027
aa(lp369
F0.00071652299753408033
aF0.017644439244825661
aa(lp370
F0.013381142385726521
aF0.0068554312103925041
aa(lp371
F0.010742882865224989
aF-0.0079540575316245817
aa(lp372
F-0.001662204173240756
aF-0.01183809244536416
aa(lp373
F-0.009883347336983539
aF-0.003674454873416084
aa(lp374
F-0.0070509256354682054
aF0.0061860064423721606
aa(lp375
F0.0019622936631630869
aF0.0079859262533342606
aa(lp376
F0.007218960981270714
aF0.0017929656475838859
aa(lp377
F0.0045271016390143123
aF-0.0048307665907352804
aa(lp378
F-0.0019685287807137959
aF-0.0054567119489254204
aa(lp379
F-0.0052378873441823936
aF-0.00075152578804973946
aa(lp380
F-0.002857281452613047
aF0.003713250781059497
aa(lp381
F2.751794793079084
aF-0.66109250771963979
aa(lp382
F-1.3408722937811981
aF2.9487787677463499
aa(lp383
F-0.12555006925308271
aF0.15304664039013011
aa(lp384
F0.01188185523149321
aF-0.0044683305627650884
aa(lp385
F-0.0069800507105923781
aF0.0067700783336189776
aa(lp386
F0.001946902337892187
aF-0.00073453652503168224
aa(lp387
F-0.001602178214026487
aF0.001465625880422206
aa(lp388
F0.00063663206364431013
aF-0.00022709382842767131
aa(lp389
F-0.00060152889901379791
aF0.00054126701441814529
aa(lp390
F0.00027067061877522608
aF-9.3270727574923384e-05
aa(lp391
F-0.00028675311086388128
aF0.00025221412680093152
aa(lp392
F0.0001399058278355528
aF-4.8967979008884832e-05
aa(lp393
F-0.00015534999852567791
aF0.00013585817094052821
aa(lp394
F8.0858247462067823e-05
aF-2.7832193490118229e-05
aa(lp395
F-9.3178387074399627e-05
aF8.1219462047532609e-05
aa(lp396
F5.0130799277015032e-05
aF-1.717451827476513e-05
aa(lp397
F-5.9609994086072537e-05
aF5.175459961844972e-05
aa(lp398
F3.3014994435143219e-05
aF-1.1263189836838159e-05
aa(lp399
F-4.0075312618514942e-05
aF3.4714727302573988e-05
aa(lp400
F2.260029604367331e-05
aF-7.7178715343906301e-06
aa(lp401
F-2.7932366184325531e-05
aF2.4099564609525451e-05
aa(lp402
F1.6074344728063409e-05
aF-5.4797159107812521e-06
aa(lp403
F-2.0006830877307421e-05
aF1.7279562153388332e-05
aa(lp404
F1.1663741572437439e-05
aF-3.9092212076666244e-06
aa(lp405
F-1.474866696085653e-05
aF1.263619015688666e-05
aa(lp406
F8.7264963882505153e-06
aF-2.8987975175158789e-06
aa(lp407
F-1.2787936909393021
aF2.0372140143245518
aasS'viewfile'
p408
g13
sba(imin_path.mod_minpath
minpath
p409
(dp410
g3
F12.088633883169679
sS'symdata'
p411
S'!!!======================================================================\n!!! generated configuration file\n!!!======================================================================\n0 !! action_type\n4 !! NOB\n2 !! dim\n1  !! sizekerT\n1 !! perm j=1\n2 !! perm j=2\n3 !! perm j=3\n4 !! perm j=4\n1.0D0 !! matrix (j,k)=(1,1)\n0.0D0 !! matrix (j,k)=(1,2)\n0.0D0 !! matrix (j,k)=(2,1)\n1.0D0 !! matrix (j,k)=(2,2)\n12  !! cyclic_order\n3 !! cyclic_perm j=1\n4 !! cyclic_perm j=2\n2 !! cyclic_perm j=3\n1 !! cyclic_perm j=4\n-0.5D0 !! cyclic_matrix (j,k)=(1,1)\n-0.8660254037844386D0  !!! imag= 5.8286708792820718e-16 !! cyclic_matrix (j,k)=(1,2)\n0.8660254037844386D0  !!! imag= -5.8286708792820718e-16 !! cyclic_matrix (j,k)=(2,1)\n-0.5D0 !! cyclic_matrix (j,k)=(2,2)\n2 !! cyclic_perm j=1\n1 !! cyclic_perm j=2\n4 !! cyclic_perm j=3\n3 !! cyclic_perm j=4\n-0.5D0 !! cyclic_matrix (j,k)=(1,1)\n0.8660254037844386D0  !!! imag= -5.8286708792820718e-16 !! cyclic_matrix (j,k)=(1,2)\n-0.8660254037844386D0  !!! imag= 5.8286708792820718e-16 !! cyclic_matrix (j,k)=(2,1)\n-0.5D0 !! cyclic_matrix (j,k)=(2,2)\n4 !! cyclic_perm j=1\n3 !! cyclic_perm j=2\n1 !! cyclic_perm j=3\n2 !! cyclic_perm j=4\n1.0D0 !! cyclic_matrix (j,k)=(1,1)\n0.0D0 !! cyclic_matrix (j,k)=(1,2)\n0.0D0 !! cyclic_matrix (j,k)=(2,1)\n1.0D0 !! cyclic_matrix (j,k)=(2,2)\n1 !! cyclic_perm j=1\n2 !! cyclic_perm j=2\n3 !! cyclic_perm j=3\n4 !! cyclic_perm j=4\n-0.5D0 !! cyclic_matrix (j,k)=(1,1)\n-0.8660254037844386D0  !!! imag= 5.8286708792820718e-16 !! cyclic_matrix (j,k)=(1,2)\n0.8660254037844386D0  !!! imag= -5.8286708792820718e-16 !! cyclic_matrix (j,k)=(2,1)\n-0.5D0 !! cyclic_matrix (j,k)=(2,2)\n3 !! cyclic_perm j=1\n4 !! cyclic_perm j=2\n2 !! cyclic_perm j=3\n1 !! cyclic_perm j=4\n-0.5D0 !! cyclic_matrix (j,k)=(1,1)\n0.8660254037844386D0  !!! imag= -5.8286708792820718e-16 !! cyclic_matrix (j,k)=(1,2)\n-0.8660254037844386D0  !!! imag= 5.8286708792820718e-16 !! cyclic_matrix (j,k)=(2,1)\n-0.5D0 !! cyclic_matrix (j,k)=(2,2)\n2 !! cyclic_perm j=1\n1 !! cyclic_perm j=2\n4 !! cyclic_perm j=3\n3 !! cyclic_perm j=4\n1.0D0 !! cyclic_matrix (j,k)=(1,1)\n0.0D0 !! cyclic_matrix (j,k)=(1,2)\n0.0D0 !! cyclic_matrix (j,k)=(2,1)\n1.0D0 !! cyclic_matrix (j,k)=(2,2)\n4 !! cyclic_perm j=1\n3 !! cyclic_perm j=2\n1 !! cyclic_perm j=3\n2 !! cyclic_perm j=4\n-0.5D0 !! cyclic_matrix (j,k)=(1,1)\n-0.8660254037844386D0  !!! imag= 5.8286708792820718e-16 !! cyclic_matrix (j,k)=(1,2)\n0.8660254037844386D0  !!! imag= -5.8286708792820718e-16 !! cyclic_matrix (j,k)=(2,1)\n-0.5D0 !! cyclic_matrix (j,k)=(2,2)\n1 !! cyclic_perm j=1\n2 !! cyclic_perm j=2\n3 !! cyclic_perm j=3\n4 !! cyclic_perm j=4\n-0.5D0 !! cyclic_matrix (j,k)=(1,1)\n0.8660254037844386D0  !!! imag= -5.8286708792820718e-16 !! cyclic_matrix (j,k)=(1,2)\n-0.8660254037844386D0  !!! imag= 5.8286708792820718e-16 !! cyclic_matrix (j,k)=(2,1)\n-0.5D0 !! cyclic_matrix (j,k)=(2,2)\n3 !! cyclic_perm j=1\n4 !! cyclic_perm j=2\n2 !! cyclic_perm j=3\n1 !! cyclic_perm j=4\n1.0D0 !! cyclic_matrix (j,k)=(1,1)\n0.0D0 !! cyclic_matrix (j,k)=(1,2)\n0.0D0 !! cyclic_matrix (j,k)=(2,1)\n1.0D0 !! cyclic_matrix (j,k)=(2,2)\n2 !! cyclic_perm j=1\n1 !! cyclic_perm j=2\n4 !! cyclic_perm j=3\n3 !! cyclic_perm j=4\n-0.5D0 !! cyclic_matrix (j,k)=(1,1)\n-0.8660254037844386D0  !!! imag= 5.8286708792820718e-16 !! cyclic_matrix (j,k)=(1,2)\n0.8660254037844386D0  !!! imag= -5.8286708792820718e-16 !! cyclic_matrix (j,k)=(2,1)\n-0.5D0 !! cyclic_matrix (j,k)=(2,2)\n4 !! cyclic_perm j=1\n3 !! cyclic_perm j=2\n1 !! cyclic_perm j=3\n2 !! cyclic_perm j=4\n-0.5D0 !! cyclic_matrix (j,k)=(1,1)\n0.8660254037844386D0  !!! imag= -5.8286708792820718e-16 !! cyclic_matrix (j,k)=(1,2)\n-0.8660254037844386D0  !!! imag= 5.8286708792820718e-16 !! cyclic_matrix (j,k)=(2,1)\n-0.5D0 !! cyclic_matrix (j,k)=(2,2)\n1 !! cyclic_perm j=1\n2 !! cyclic_perm j=2\n3 !! cyclic_perm j=3\n4 !! cyclic_perm j=4\n1.0D0 !! cyclic_matrix (j,k)=(1,1)\n0.0D0 !! cyclic_matrix (j,k)=(1,2)\n0.0D0 !! cyclic_matrix (j,k)=(2,1)\n1.0D0 !! cyclic_matrix (j,k)=(2,2)\n'
p412
sS'TODOLIST'
p413
(lp414
S'new()'
p415
aS'relax(200)'
p416
asS'NOB'
p417
I4
sS'withcoll'
p418
I0
sS'todo'
p419
g13
sS'omega'
p420
(lp421
F0.0
aF0.0
aF0.0
asS'massdata'
p422
S' 1.000000000000000000000000e+00 !! m(1)\n 1.000000000000000000000000e+00 !! m(2)\n 1.000000000000000000000000e+00 !! m(3)\n 1.000000000000000000000000e+00 !! m(4)\n'
p423
sS'dim'
p424
I2
sS'gammadata'
p425
S' 4 2 24  !! NOB,dim,steps\n 0.000000000000000E+00 0.000000000000000E+00 0.000000000000000E+00  !! omega\n 1.000000000000000  !! ALPHA\n 1.000000000000000  !! m( 1 )\n 1.000000000000000  !! m( 2 )\n 1.000000000000000  !! m( 3 )\n 1.000000000000000  !! m( 4 )\n 0.4623865144975385 1.294322074192222E-03\n -0.2338168951033270 0.1151374423149136\n -1.220185715339756E-02 -6.601590411300695E-02\n -1.772584617938816E-02 4.487387792554309E-03\n 1.136942257691058E-02 -2.899854650779798E-02\n 2.828810097719463E-02 2.053326653144661E-02\n -2.217609536594747E-02 2.534128035498678E-02\n -2.035340995405845E-02 -2.686675238104934E-02\n 2.527723080793607E-02 -1.575883521977617E-02\n 1.026826049452187E-02 2.885231078146631E-02\n -2.486956377680592E-02 4.769870967768222E-03\n -1.436533174808841E-03 -2.549745153690628E-02\n 2.115031526781783E-02 3.205329575563284E-03\n -4.994601189851513E-03 2.034342213448874E-02\n -1.612785905057334E-02 -8.533038576912351E-03\n 8.804137870314869E-03 -1.408647424209801E-02\n 1.059284340423340E-02 1.084998893523979E-02\n -1.025391599513415E-02 8.351433491736121E-03\n -5.629206959004479E-03 -1.108367093150429E-02\n 9.873155113807444E-03 -3.503180359267775E-03\n 1.625962791239492E-03 9.736657369515249E-03\n -8.299924627120484E-03 6.511464792795588E-05\n 1.080237184714380E-03 -7.670076925315825E-03\n 6.157632119089056E-03 2.114889939246200E-03\n -2.581428813209781E-03 5.346417691702174E-03\n 0.4401817831555490 2.602967561868281\n -3.228780810939138 -1.007040824947463\n -0.1620961754196825 -7.208935723232365E-02\n 2.531451724669620E-03 2.832785828148943E-03\n -7.110741080639082E-03 -2.640885101221513E-03\n 5.570615573492303E-04 4.215753087912777E-04\n -1.564480228029724E-03 -5.866111365100818E-04\n 1.774069491873309E-04 1.270382254755786E-04\n -5.727738106579422E-04 -2.165238161062483E-04\n 7.345332539018812E-05 5.416433839677826E-05\n -2.656467868144561E-04 -9.862185773230718E-05\n 3.918972784890118E-05 2.659794907095003E-05\n -1.451686959445496E-04 -5.443307301505190E-05\n 2.200116406354813E-05 1.593487363902787E-05\n -8.565540920124105E-05 -3.200066182360017E-05\n 1.373446394078645E-05 9.368222701172657E-06\n -5.509506613662202E-05 -2.050854184667845E-05\n 9.088649559937934E-06 6.406666075596621E-06\n -3.674444748302287E-05 -1.376064229425969E-05\n 6.164641100134260E-06 4.269107199326994E-06\n -2.563698459235111E-05 -9.547169660190785E-06\n 4.399019976106255E-06 3.052242393230403E-06\n -1.837522314435819E-05 -6.858520105149264E-06\n 3.217139755210680E-06 2.224144467391498E-06\n -1.348325684621000E-05 -5.061563760358490E-06\n 2.467795438228226E-06 1.657953842919974E-06\n -2.694380952631961 -0.7100730757021090\n 2.034145142227000 -1.682692387429980\n 0.1200117580451672 -0.1427659883019735\n 3.530500377683710E-03 -5.060706858579289E-03\n 5.944121022957327E-03 -6.198624936330832E-03\n 6.691176690352962E-04 -8.686459825002490E-04\n 1.322303101274276E-03 -1.374244621349153E-03\n 2.169061641972836E-04 -2.715749821889379E-04\n 4.836028782089288E-04 -4.997070209358384E-04\n 9.586321817349475E-05 -1.137605908946848E-04\n 2.287390306178567E-04 -2.363140328216174E-04\n 4.797758100140437E-05 -5.890605713396169E-05\n 1.232581992711458E-04 -1.263126497777836E-04\n 2.862342551399749E-05 -3.371353747170722E-05\n 7.376019930175996E-05 -7.618608975665242E-05\n 1.723638242270495E-05 -2.073636090565989E-05\n 4.710431823768367E-05 -4.820248596442128E-05\n 1.161233801946077E-05 -1.377498648557404E-05\n 3.153080327537687E-05 -3.247889529663702E-05\n 7.846231010293081E-06 -9.336867595778620E-06\n 2.198843095351302E-05 -2.256151136677351E-05\n 5.582730018695303E-06 -6.640513023632721E-06\n 1.573396501668850E-05 -1.617708848197872E-05\n 4.030026880047152E-06 -4.828822141363792E-06\n 1.146305588155608E-05 -1.183506061130934E-05\n 2.915117648882859E-06 -3.594819044692305E-06\n 2.486513342522111 -2.292685793051282\n 0.7322491542146032 2.688438890303248\n 0.2759013124778423 9.971790321938345E-02\n 6.139905051044114E-03 6.824382514343719E-02\n 1.889246623706997E-02 4.352122244998258E-03\n -1.259560180329510E-02 2.944561718150673E-02\n -2.804592385043918E-02 -1.857241077358737E-02\n 2.178178225256294E-02 -2.519674359827345E-02\n 2.044258088650746E-02 2.758298321809143E-02\n -2.544654735149976E-02 1.581843147227405E-02\n -1.023135273832528E-02 -2.851737489091239E-02\n 2.478239646795561E-02 -4.737562859705197E-03\n 1.458443671482238E-03 2.567819725969910E-02\n -2.120093985739539E-02 -3.187550911730615E-03\n 5.006496399750994E-03 -2.023523538290847E-02\n 1.609688820420985E-02 8.544406715116838E-03\n -8.796147122415932E-03 1.415518526990911E-02\n -1.061354439181279E-02 -1.084262061482982E-02\n 1.025912963934180E-02 -8.305193954145227E-03\n 5.615196086894057E-03 1.108873869190077E-02\n -9.869506560168599E-03 3.535289040294739E-03\n -1.635944541234294E-03 -9.733069098884849E-03\n 8.302565885248154E-03 -4.207903934082616E-05\n -1.087484351349640E-03 7.672681602989791E-03\n -6.155611918124400E-03 -2.097993314874529E-03\n 2.576045900122668E-03 -5.344480826500415E-03\n -0.2323141730456987 0.3997913068851138\n'
p426
sS'log'
p427
g13
sS'SPMETHOD'
p428
I1
sg23
F6.8491702781106201e-11
sS'masses'
p429
(lp430
F1.0
aF1.0
aF1.0
aF1.0
asS'symfilename'
p431
g13
sS'invalid'
p432
I0
sS'steps'
p433
I24
sS'ALPHA'
p434
F1.0
sS'confdata'
p435
S'!! CONFIG STRING\n&CONFIG\nCOMMAND=howsol\nSPMETHOD=3\nALG=0\nsteps=24\nALPHA=1.000000000000000000000000e+00\n/\n0.000000000000000000000000e+00 !! omega(1)\n0.000000000000000000000000e+00 !! omega(2)\n0.000000000000000000000000e+00 !! omega(3)\n'
p436
sS'gamma'
p437
(lp438
(lp439
F0.46238651449753848
aF0.0012943220741922219
aa(lp440
F-0.23381689510332701
aF0.1151374423149136
aa(lp441
F-0.01220185715339756
aF-0.066015904113006951
aa(lp442
F-0.017725846179388161
aF0.0044873877925543093
aa(lp443
F0.011369422576910581
aF-0.028998546507797981
aa(lp444
F0.028288100977194631
aF0.02053326653144661
aa(lp445
F-0.02217609536594747
aF0.02534128035498678
aa(lp446
F-0.02035340995405845
aF-0.026866752381049339
aa(lp447
F0.02527723080793607
aF-0.015758835219776168
aa(lp448
F0.010268260494521869
aF0.028852310781466311
aa(lp449
F-0.024869563776805919
aF0.0047698709677682222
aa(lp450
F-0.0014365331748088411
aF-0.025497451536906281
aa(lp451
F0.02115031526781783
aF0.0032053295755632839
aa(lp452
F-0.0049946011898515134
aF0.020343422134488739
aa(lp453
F-0.016127859050573339
aF-0.008533038576912351
aa(lp454
F0.0088041378703148689
aF-0.01408647424209801
aa(lp455
F0.0105928434042334
aF0.01084998893523979
aa(lp456
F-0.010253915995134149
aF0.0083514334917361207
aa(lp457
F-0.0056292069590044786
aF-0.011083670931504291
aa(lp458
F0.0098731551138074441
aF-0.0035031803592677751
aa(lp459
F0.001625962791239492
aF0.0097366573695152493
aa(lp460
F-0.0082999246271204842
aF6.5114647927955877e-05
aa(lp461
F0.00108023718471438
aF-0.0076700769253158253
aa(lp462
F0.006157632119089056
aF0.0021148899392461999
aa(lp463
F-0.002581428813209781
aF0.0053464176917021738
aa(lp464
F0.44018178315554901
aF2.6029675618682808
aa(lp465
F-3.228780810939138
aF-1.0070408249474629
aa(lp466
F-0.16209617541968249
aF-0.072089357232323653
aa(lp467
F0.00253145172466962
aF0.0028327858281489431
aa(lp468
F-0.0071107410806390816
aF-0.0026408851012215129
aa(lp469
F0.00055706155734923032
aF0.00042157530879127769
aa(lp470
F-0.001564480228029724
aF-0.00058661113651008179
aa(lp471
F0.00017740694918733091
aF0.00012703822547557861
aa(lp472
F-0.0005727738106579422
aF-0.0002165238161062483
aa(lp473
F7.3453325390188118e-05
aF5.4164338396778262e-05
aa(lp474
F-0.00026564678681445612
aF-9.862185773230718e-05
aa(lp475
F3.9189727848901179e-05
aF2.659794907095003e-05
aa(lp476
F-0.00014516869594454959
aF-5.4433073015051903e-05
aa(lp477
F2.2001164063548129e-05
aF1.5934873639027871e-05
aa(lp478
F-8.5655409201241053e-05
aF-3.2000661823600167e-05
aa(lp479
F1.3734463940786449e-05
aF9.3682227011726571e-06
aa(lp480
F-5.5095066136622017e-05
aF-2.0508541846678451e-05
aa(lp481
F9.0886495599379336e-06
aF6.4066660755966211e-06
aa(lp482
F-3.6744447483022871e-05
aF-1.376064229425969e-05
aa(lp483
F6.1646411001342596e-06
aF4.2691071993269944e-06
aa(lp484
F-2.5636984592351111e-05
aF-9.5471696601907852e-06
aa(lp485
F4.3990199761062554e-06
aF3.0522423932304028e-06
aa(lp486
F-1.8375223144358192e-05
aF-6.8585201051492642e-06
aa(lp487
F3.2171397552106799e-06
aF2.2241444673914978e-06
aa(lp488
F-1.348325684621e-05
aF-5.0615637603584904e-06
aa(lp489
F2.4677954382282259e-06
aF1.657953842919974e-06
aa(lp490
F-2.6943809526319611
aF-0.71007307570210898
aa(lp491
F2.034145142227
aF-1.68269238742998
aa(lp492
F0.1200117580451672
aF-0.14276598830197351
aa(lp493
F0.00353050037768371
aF-0.0050607068585792891
aa(lp494
F0.0059441210229573271
aF-0.0061986249363308321
aa(lp495
F0.00066911766903529624
aF-0.00086864598250024905
aa(lp496
F0.001322303101274276
aF-0.0013742446213491531
aa(lp497
F0.00021690616419728359
aF-0.00027157498218893789
aa(lp498
F0.00048360287820892878
aF-0.00049970702093583841
aa(lp499
F9.5863218173494746e-05
aF-0.00011376059089468479
aa(lp500
F0.00022873903061785671
aF-0.00023631403282161739
aa(lp501
F4.7977581001404368e-05
aF-5.8906057133961687e-05
aa(lp502
F0.00012325819927114581
aF-0.00012631264977778359
aa(lp503
F2.8623425513997491e-05
aF-3.3713537471707217e-05
aa(lp504
F7.3760199301759963e-05
aF-7.618608975665242e-05
aa(lp505
F1.7236382422704949e-05
aF-2.073636090565989e-05
aa(lp506
F4.7104318237683671e-05
aF-4.8202485964421282e-05
aa(lp507
F1.161233801946077e-05
aF-1.377498648557404e-05
aa(lp508
F3.153080327537687e-05
aF-3.2478895296637021e-05
aa(lp509
F7.846231010293081e-06
aF-9.3368675957786196e-06
aa(lp510
F2.1988430953513018e-05
aF-2.256151136677351e-05
aa(lp511
F5.5827300186953033e-06
aF-6.6405130236327206e-06
aa(lp512
F1.57339650166885e-05
aF-1.617708848197872e-05
aa(lp513
F4.0300268800471523e-06
aF-4.8288221413637922e-06
aa(lp514
F1.146305588155608e-05
aF-1.183506061130934e-05
aa(lp515
F2.915117648882859e-06
aF-3.5948190446923049e-06
aa(lp516
F2.4865133425221111
aF-2.2926857930512821
aa(lp517
F0.73224915421460324
aF2.6884388903032481
aa(lp518
F0.27590131247784228
aF0.099717903219383452
aa(lp519
F0.0061399050510441136
aF0.068243825143437187
aa(lp520
F0.018892466237069971
aF0.0043521222449982577
aa(lp521
F-0.0125956018032951
aF0.02944561718150673
aa(lp522
F-0.028045923850439181
aF-0.018572410773587369
aa(lp523
F0.021781782252562939
aF-0.025196743598273449
aa(lp524
F0.02044258088650746
aF0.027582983218091429
aa(lp525
F-0.02544654735149976
aF0.015818431472274051
aa(lp526
F-0.01023135273832528
aF-0.028517374890912391
aa(lp527
F0.02478239646795561
aF-0.0047375628597051966
aa(lp528
F0.0014584436714822381
aF0.025678197259699099
aa(lp529
F-0.021200939857395389
aF-0.003187550911730615
aa(lp530
F0.0050064963997509936
aF-0.02023523538290847
aa(lp531
F0.016096888204209851
aF0.0085444067151168382
aa(lp532
F-0.0087961471224159322
aF0.01415518526990911
aa(lp533
F-0.01061354439181279
aF-0.01084262061482982
aa(lp534
F0.0102591296393418
aF-0.008305193954145227
aa(lp535
F0.0056151960868940573
aF0.01108873869190077
aa(lp536
F-0.0098695065601685991
aF0.003535289040294739
aa(lp537
F-0.001635944541234294
aF-0.0097330690988848487
aa(lp538
F0.0083025658852481539
aF-4.2079039340826158e-05
aa(lp539
F-0.00108748435134964
aF0.0076726816029897907
aa(lp540
F-0.0061556119181244004
aF-0.002097993314874529
aa(lp541
F0.0025760459001226681
aF-0.0053444808265004154
aa(lp542
F-0.23231417304569871
aF0.39979130688511377
aasS'viewfile'
p543
g13
sba(imin_path.mod_minpath
minpath
p544
(dp545
g3
F12.25141055406959
sS'symdata'
p546
S'!!!======================================================================\n!!! generated configuration file\n!!!======================================================================\n0 !! action_type\n4 !! NOB\n2 !! dim\n1  !! sizekerT\n1 !! perm j=1\n2 !! perm j=2\n3 !! perm j=3\n4 !! perm j=4\n1.0D0 !! matrix (j,k)=(1,1)\n0.0D0 !! matrix (j,k)=(1,2)\n0.0D0 !! matrix (j,k)=(2,1)\n1.0D0 !! matrix (j,k)=(2,2)\n12  !! cyclic_order\n3 !! cyclic_perm j=1\n4 !! cyclic_perm j=2\n2 !! cyclic_perm j=3\n1 !! cyclic_perm j=4\n-0.5D0 !! cyclic_matrix (j,k)=(1,1)\n-0.8660254037844386D0  !!! imag= 5.8286708792820718e-16 !! cyclic_matrix (j,k)=(1,2)\n0.8660254037844386D0  !!! imag= -5.8286708792820718e-16 !! cyclic_matrix (j,k)=(2,1)\n-0.5D0 !! cyclic_matrix (j,k)=(2,2)\n2 !! cyclic_perm j=1\n1 !! cyclic_perm j=2\n4 !! cyclic_perm j=3\n3 !! cyclic_perm j=4\n-0.5D0 !! cyclic_matrix (j,k)=(1,1)\n0.8660254037844386D0  !!! imag= -5.8286708792820718e-16 !! cyclic_matrix (j,k)=(1,2)\n-0.8660254037844386D0  !!! imag= 5.8286708792820718e-16 !! cyclic_matrix (j,k)=(2,1)\n-0.5D0 !! cyclic_matrix (j,k)=(2,2)\n4 !! cyclic_perm j=1\n3 !! cyclic_perm j=2\n1 !! cyclic_perm j=3\n2 !! cyclic_perm j=4\n1.0D0 !! cyclic_matrix (j,k)=(1,1)\n0.0D0 !! cyclic_matrix (j,k)=(1,2)\n0.0D0 !! cyclic_matrix (j,k)=(2,1)\n1.0D0 !! cyclic_matrix (j,k)=(2,2)\n1 !! cyclic_perm j=1\n2 !! cyclic_perm j=2\n3 !! cyclic_perm j=3\n4 !! cyclic_perm j=4\n-0.5D0 !! cyclic_matrix (j,k)=(1,1)\n-0.8660254037844386D0  !!! imag= 5.8286708792820718e-16 !! cyclic_matrix (j,k)=(1,2)\n0.8660254037844386D0  !!! imag= -5.8286708792820718e-16 !! cyclic_matrix (j,k)=(2,1)\n-0.5D0 !! cyclic_matrix (j,k)=(2,2)\n3 !! cyclic_perm j=1\n4 !! cyclic_perm j=2\n2 !! cyclic_perm j=3\n1 !! cyclic_perm j=4\n-0.5D0 !! cyclic_matrix (j,k)=(1,1)\n0.8660254037844386D0  !!! imag= -5.8286708792820718e-16 !! cyclic_matrix (j,k)=(1,2)\n-0.8660254037844386D0  !!! imag= 5.8286708792820718e-16 !! cyclic_matrix (j,k)=(2,1)\n-0.5D0 !! cyclic_matrix (j,k)=(2,2)\n2 !! cyclic_perm j=1\n1 !! cyclic_perm j=2\n4 !! cyclic_perm j=3\n3 !! cyclic_perm j=4\n1.0D0 !! cyclic_matrix (j,k)=(1,1)\n0.0D0 !! cyclic_matrix (j,k)=(1,2)\n0.0D0 !! cyclic_matrix (j,k)=(2,1)\n1.0D0 !! cyclic_matrix (j,k)=(2,2)\n4 !! cyclic_perm j=1\n3 !! cyclic_perm j=2\n1 !! cyclic_perm j=3\n2 !! cyclic_perm j=4\n-0.5D0 !! cyclic_matrix (j,k)=(1,1)\n-0.8660254037844386D0  !!! imag= 5.8286708792820718e-16 !! cyclic_matrix (j,k)=(1,2)\n0.8660254037844386D0  !!! imag= -5.8286708792820718e-16 !! cyclic_matrix (j,k)=(2,1)\n-0.5D0 !! cyclic_matrix (j,k)=(2,2)\n1 !! cyclic_perm j=1\n2 !! cyclic_perm j=2\n3 !! cyclic_perm j=3\n4 !! cyclic_perm j=4\n-0.5D0 !! cyclic_matrix (j,k)=(1,1)\n0.8660254037844386D0  !!! imag= -5.8286708792820718e-16 !! cyclic_matrix (j,k)=(1,2)\n-0.8660254037844386D0  !!! imag= 5.8286708792820718e-16 !! cyclic_matrix (j,k)=(2,1)\n-0.5D0 !! cyclic_matrix (j,k)=(2,2)\n3 !! cyclic_perm j=1\n4 !! cyclic_perm j=2\n2 !! cyclic_perm j=3\n1 !! cyclic_perm j=4\n1.0D0 !! cyclic_matrix (j,k)=(1,1)\n0.0D0 !! cyclic_matrix (j,k)=(1,2)\n0.0D0 !! cyclic_matrix (j,k)=(2,1)\n1.0D0 !! cyclic_matrix (j,k)=(2,2)\n2 !! cyclic_perm j=1\n1 !! cyclic_perm j=2\n4 !! cyclic_perm j=3\n3 !! cyclic_perm j=4\n-0.5D0 !! cyclic_matrix (j,k)=(1,1)\n-0.8660254037844386D0  !!! imag= 5.8286708792820718e-16 !! cyclic_matrix (j,k)=(1,2)\n0.8660254037844386D0  !!! imag= -5.8286708792820718e-16 !! cyclic_matrix (j,k)=(2,1)\n-0.5D0 !! cyclic_matrix (j,k)=(2,2)\n4 !! cyclic_perm j=1\n3 !! cyclic_perm j=2\n1 !! cyclic_perm j=3\n2 !! cyclic_perm j=4\n-0.5D0 !! cyclic_matrix (j,k)=(1,1)\n0.8660254037844386D0  !!! imag= -5.8286708792820718e-16 !! cyclic_matrix (j,k)=(1,2)\n-0.8660254037844386D0  !!! imag= 5.8286708792820718e-16 !! cyclic_matrix (j,k)=(2,1)\n-0.5D0 !! cyclic_matrix (j,k)=(2,2)\n1 !! cyclic_perm j=1\n2 !! cyclic_perm j=2\n3 !! cyclic_perm j=3\n4 !! cyclic_perm j=4\n1.0D0 !! cyclic_matrix (j,k)=(1,1)\n0.0D0 !! cyclic_matrix (j,k)=(1,2)\n0.0D0 !! cyclic_matrix (j,k)=(2,1)\n1.0D0 !! cyclic_matrix (j,k)=(2,2)\n'
p547
sS'TODOLIST'
p548
(lp549
S'new()'
p550
aS'relax(200)'
p551
asS'NOB'
p552
I4
sS'withcoll'
p553
I0
sS'todo'
p554
g13
sS'omega'
p555
(lp556
F0.0
aF0.0
aF0.0
asS'massdata'
p557
S' 1.000000000000000000000000e+00 !! m(1)\n 1.000000000000000000000000e+00 !! m(2)\n 1.000000000000000000000000e+00 !! m(3)\n 1.000000000000000000000000e+00 !! m(4)\n'
p558
sS'dim'
p559
I2
sS'gammadata'
p560
S' 4 2 24  !! NOB,dim,steps\n 0.000000000000000E+00 0.000000000000000E+00 0.000000000000000E+00  !! omega\n 1.000000000000000  !! ALPHA\n 1.000000000000000  !! m( 1 )\n 1.000000000000000  !! m( 2 )\n 1.000000000000000  !! m( 3 )\n 1.000000000000000  !! m( 4 )\n -0.4558222493730499 1.069217203959419\n -0.4744625180838467 0.1322208328539809\n -5.577324340970891E-02 -8.067654253791078E-02\n -1.832416877880239E-02 -1.824475071526947E-02\n -3.607372170530573E-03 -1.648193326294534E-02\n -1.970138410723896E-03 -5.631543980869527E-03\n -4.758118605992928E-05 -5.226922990791121E-03\n -2.280072387923146E-04 -2.071171550573642E-03\n 2.140109252927326E-04 -2.137999001449311E-03\n 6.148861887387506E-06 -9.155535512698112E-04\n 1.630972039882603E-04 -1.043264761414385E-03\n 3.038996964654125E-05 -4.688197366720425E-04\n 1.064950400119099E-04 -5.772034337542618E-04\n 2.501488455519901E-05 -2.680795553892217E-04\n 6.937936197581786E-05 -3.493418448786193E-04\n 1.784828057666346E-05 -1.661847400685568E-04\n 4.645913039089805E-05 -2.256101075280543E-04\n 1.253867216359961E-05 -1.092872047686673E-04\n 3.209978013474441E-05 -1.528411927944156E-04\n 8.928294607436164E-06 -7.509396297214423E-05\n 2.280608834339965E-05 -1.073429069791965E-04\n 6.469660146396581E-06 -5.335078030135713E-05\n 1.655776804677272E-05 -7.750403916244862E-05\n 4.726834620376536E-06 -3.889165820203670E-05\n 1.217747116608533E-05 -5.713913214709957E-05\n 0.2080375728044661 1.876488691001447\n -0.6307016023444920 1.885737342476100\n 0.5482547785108185 0.2907271770593349\n 2.597338558753487E-02 8.559646235990892E-02\n 2.079763033067858E-02 3.273736404122117E-02\n 5.727299788174656E-05 1.706320894630975E-02\n 2.499755210452953E-03 8.744968875408260E-03\n -9.878716302380193E-04 5.400028455563095E-03\n 4.181935498121375E-04 3.191849552685863E-03\n -6.447434222449911E-04 2.210680424342653E-03\n 8.208060591693945E-05 1.435694834420406E-03\n -3.803952760939945E-04 1.080062020448887E-03\n 1.718730141139812E-05 7.492844909915653E-04\n -2.301288550928880E-04 5.981671828070897E-04\n 3.288914868019937E-06 4.349021937628747E-04\n -1.457004076677385E-04 3.622897362036499E-04\n 1.855958149665771E-07 2.724619394957545E-04\n -9.640808149312077E-05 2.340858702565777E-04\n -4.576648465961109E-07 1.804757388037505E-04\n -6.623868590786321E-05 1.586348354149550E-04\n -5.242501416127289E-07 1.246119243815752E-04\n -4.692062502330719E-05 1.114355968838143E-04\n -4.525489210314201E-07 8.880246737363840E-05\n -3.402729223555404E-05 8.046905237830103E-05\n -3.225667163766544E-07 6.483909994211493E-05\n -2.508305660232349E-05 5.932972183224746E-05\n 1.807766205578246 0.5419458396214203\n 1.521068089919227 -1.118410168491046\n 0.4160153751276270 -0.5147493100200298\n 1.414306319397204E-02 0.1073039133259570\n 1.321625456912556E-03 -4.359808824774832E-02\n 1.018320547656575E-02 1.794913521451909E-02\n -3.334762371203066E-03 -9.434710044058520E-03\n 4.418602617768014E-03 4.664731118457825E-03\n -1.719489775752179E-03 -2.907642530508593E-03\n 2.011366054116762E-03 1.632067531502883E-03\n -8.383688734090061E-04 -1.171297810145557E-03\n 1.013835597300746E-03 7.251014000656305E-04\n -4.397871857131565E-04 -5.784315623802172E-04\n 5.647414026736211E-04 3.840330035412191E-04\n -2.519338352522845E-04 -3.287233389540831E-04\n 3.417965346524761E-04 2.287507387318565E-04\n -1.557827070713409E-04 -2.048312785686091E-04\n 2.205585180716455E-04 1.471204938857796E-04\n -1.022515730967395E-04 -1.357034290417995E-04\n 1.493701942506982E-04 9.966001290617342E-05\n -7.020815574225719E-05 -9.385266003599868E-05\n 1.049086776376811E-04 7.007339499654863E-05\n -4.985847481080684E-05 -6.701563818544819E-05\n 7.571719846940453E-05 5.069124334635441E-05\n -3.626945689401249E-05 -4.904841095817764E-05\n 5.572647691820599E-05 3.746221032033064E-05\n -1.317745642277012 -1.489072281075931\n -0.4345442382016860 -1.836544377944473\n -0.4898076355545989 9.180130010671392E-02\n 1.565679462820196E-02 -0.1122238331479551\n -3.795087008788722E-03 2.910547492179665E-02\n -6.633106303916919E-03 -1.853041089788350E-02\n 2.805145571474009E-03 6.321285149519792E-03\n -3.383149801470069E-03 -4.837836583229796E-03\n 1.529303464732356E-03 1.786964528396372E-03\n -1.580633557164503E-03 -1.704748954396226E-03\n 7.501394056046795E-04 6.511565269949632E-04\n -7.965375251950123E-04 -7.618986591001378E-04\n 3.922099146552172E-04 2.979668080606943E-04\n -4.411075875926417E-04 -4.049967525940470E-04\n 2.236300358290656E-04 1.619007005804300E-04\n -2.654754889605546E-04 -2.416986300568871E-04\n 1.377488306797073E-04 9.855407914141135E-05\n -1.706095669694228E-04 -1.555962566143030E-04\n 9.017056577973620E-05 6.451489500671625E-05\n -1.152312884775790E-04 -1.054536555267129E-04\n 6.180411127643375E-05 4.433469862656782E-05\n -8.079414095777272E-05 -7.416608490116690E-05\n 4.384136358544146E-05 3.156395111316693E-05\n -5.824767428062316E-05 -5.365625656220639E-05\n 3.186518899001283E-05 2.310096921809941E-05\n -4.282089148196784E-05 -3.965280000547858E-05\n -0.6980581361056999 -0.9293622495469362\n'
p561
sS'log'
p562
g13
sS'SPMETHOD'
p563
I1
sg23
F2.9857247588378299e-05
sS'masses'
p564
(lp565
F1.0
aF1.0
aF1.0
aF1.0
asS'symfilename'
p566
g13
sS'invalid'
p567
I0
sS'steps'
p568
I24
sS'ALPHA'
p569
F1.0
sS'confdata'
p570
S'!! CONFIG STRING\n&CONFIG\nCOMMAND=howsol\nSPMETHOD=3\nALG=0\nsteps=24\nALPHA=1.000000000000000000000000e+00\n/\n0.000000000000000000000000e+00 !! omega(1)\n0.000000000000000000000000e+00 !! omega(2)\n0.000000000000000000000000e+00 !! omega(3)\n'
p571
sS'gamma'
p572
(lp573
(lp574
F-0.45582224937304988
aF1.069217203959419
aa(lp575
F-0.47446251808384671
aF0.1322208328539809
aa(lp576
F-0.055773243409708913
aF-0.080676542537910775
aa(lp577
F-0.018324168778802389
aF-0.018244750715269469
aa(lp578
F-0.0036073721705305729
aF-0.01648193326294534
aa(lp579
F-0.0019701384107238961
aF-0.0056315439808695272
aa(lp580
F-4.7581186059929281e-05
aF-0.0052269229907911212
aa(lp581
F-0.0002280072387923146
aF-0.0020711715505736419
aa(lp582
F0.00021401092529273259
aF-0.002137999001449311
aa(lp583
F6.1488618873875057e-06
aF-0.00091555355126981121
aa(lp584
F0.0001630972039882603
aF-0.001043264761414385
aa(lp585
F3.0389969646541249e-05
aF-0.00046881973667204253
aa(lp586
F0.0001064950400119099
aF-0.00057720343375426177
aa(lp587
F2.501488455519901e-05
aF-0.00026807955538922171
aa(lp588
F6.9379361975817865e-05
aF-0.0003493418448786193
aa(lp589
F1.7848280576663461e-05
aF-0.0001661847400685568
aa(lp590
F4.6459130390898047e-05
aF-0.00022561010752805431
aa(lp591
F1.253867216359961e-05
aF-0.0001092872047686673
aa(lp592
F3.2099780134744408e-05
aF-0.0001528411927944156
aa(lp593
F8.9282946074361637e-06
aF-7.5093962972144226e-05
aa(lp594
F2.2806088343399651e-05
aF-0.0001073429069791965
aa(lp595
F6.469660146396581e-06
aF-5.3350780301357127e-05
aa(lp596
F1.6557768046772721e-05
aF-7.7504039162448616e-05
aa(lp597
F4.7268346203765358e-06
aF-3.8891658202036702e-05
aa(lp598
F1.217747116608533e-05
aF-5.7139132147099568e-05
aa(lp599
F0.20803757280446611
aF1.8764886910014471
aa(lp600
F-0.63070160234449202
aF1.8857373424760999
aa(lp601
F0.5482547785108185
aF0.29072717705933487
aa(lp602
F0.02597338558753487
aF0.08559646235990892
aa(lp603
F0.020797630330678579
aF0.03273736404122117
aa(lp604
F5.7272997881746557e-05
aF0.017063208946309749
aa(lp605
F0.002499755210452953
aF0.0087449688754082603
aa(lp606
F-0.0009878716302380193
aF0.0054000284555630954
aa(lp607
F0.00041819354981213752
aF0.0031918495526858629
aa(lp608
F-0.00064474342224499106
aF0.0022106804243426531
aa(lp609
F8.2080605916939452e-05
aF0.001435694834420406
aa(lp610
F-0.00038039527609399452
aF0.0010800620204488871
aa(lp611
F1.7187301411398119e-05
aF0.00074928449099156535
aa(lp612
F-0.00023012885509288801
aF0.0005981671828070897
aa(lp613
F3.2889148680199372e-06
aF0.0004349021937628747
aa(lp614
F-0.00014570040766773851
aF0.00036228973620364992
aa(lp615
F1.8559581496657709e-07
aF0.00027246193949575451
aa(lp616
F-9.6408081493120767e-05
aF0.00023408587025657769
aa(lp617
F-4.5766484659611091e-07
aF0.0001804757388037505
aa(lp618
F-6.6238685907863207e-05
aF0.00015863483541495499
aa(lp619
F-5.242501416127289e-07
aF0.00012461192438157519
aa(lp620
F-4.692062502330719e-05
aF0.0001114355968838143
aa(lp621
F-4.5254892103142012e-07
aF8.8802467373638402e-05
aa(lp622
F-3.4027292235554039e-05
aF8.0469052378301029e-05
aa(lp623
F-3.2256671637665438e-07
aF6.4839099942114935e-05
aa(lp624
F-2.5083056602323489e-05
aF5.9329721832247458e-05
aa(lp625
F1.807766205578246
aF0.54194583962142029
aa(lp626
F1.521068089919227
aF-1.1184101684910459
aa(lp627
F0.41601537512762699
aF-0.51474931002002977
aa(lp628
F0.014143063193972041
aF0.107303913325957
aa(lp629
F0.0013216254569125561
aF-0.043598088247748322
aa(lp630
F0.010183205476565749
aF0.017949135214519091
aa(lp631
F-0.0033347623712030659
aF-0.0094347100440585197
aa(lp632
F0.0044186026177680136
aF0.0046647311184578252
aa(lp633
F-0.0017194897757521789
aF-0.002907642530508593
aa(lp634
F0.002011366054116762
aF0.001632067531502883
aa(lp635
F-0.00083836887340900607
aF-0.0011712978101455569
aa(lp636
F0.001013835597300746
aF0.00072510140006563049
aa(lp637
F-0.00043978718571315652
aF-0.00057843156238021718
aa(lp638
F0.00056474140267362112
aF0.00038403300354121912
aa(lp639
F-0.00025193383525228452
aF-0.00032872333895408312
aa(lp640
F0.00034179653465247611
aF0.00022875073873185651
aa(lp641
F-0.00015578270707134091
aF-0.00020483127856860909
aa(lp642
F0.00022055851807164549
aF0.00014712049388577959
aa(lp643
F-0.00010225157309673951
aF-0.0001357034290417995
aa(lp644
F0.0001493701942506982
aF9.9660012906173422e-05
aa(lp645
F-7.0208155742257188e-05
aF-9.3852660035998684e-05
aa(lp646
F0.00010490867763768109
aF7.0073394996548631e-05
aa(lp647
F-4.9858474810806838e-05
aF-6.7015638185448194e-05
aa(lp648
F7.5717198469404533e-05
aF5.0691243346354413e-05
aa(lp649
F-3.6269456894012493e-05
aF-4.9048410958177639e-05
aa(lp650
F5.5726476918205992e-05
aF3.7462210320330638e-05
aa(lp651
F-1.317745642277012
aF-1.4890722810759309
aa(lp652
F-0.43454423820168597
aF-1.836544377944473
aa(lp653
F-0.48980763555459889
aF0.091801300106713918
aa(lp654
F0.015656794628201961
aF-0.1122238331479551
aa(lp655
F-0.0037950870087887219
aF0.029105474921796649
aa(lp656
F-0.0066331063039169191
aF-0.018530410897883501
aa(lp657
F0.0028051455714740089
aF0.0063212851495197918
aa(lp658
F-0.0033831498014700689
aF-0.0048378365832297959
aa(lp659
F0.001529303464732356
aF0.0017869645283963721
aa(lp660
F-0.001580633557164503
aF-0.001704748954396226
aa(lp661
F0.00075013940560467954
aF0.00065115652699496325
aa(lp662
F-0.00079653752519501231
aF-0.00076189865910013775
aa(lp663
F0.00039220991465521721
aF0.0002979668080606943
aa(lp664
F-0.00044110758759264169
aF-0.000404996752594047
aa(lp665
F0.0002236300358290656
aF0.00016190070058042999
aa(lp666
F-0.0002654754889605546
aF-0.0002416986300568871
aa(lp667
F0.00013774883067970729
aF9.8554079141411352e-05
aa(lp668
F-0.00017060956696942281
aF-0.000155596256614303
aa(lp669
F9.0170565779736198e-05
aF6.4514895006716254e-05
aa(lp670
F-0.000115231288477579
aF-0.0001054536555267129
aa(lp671
F6.1804111276433753e-05
aF4.4334698626567817e-05
aa(lp672
F-8.0794140957772716e-05
aF-7.4166084901166902e-05
aa(lp673
F4.384136358544146e-05
aF3.1563951113166933e-05
aa(lp674
F-5.8247674280623157e-05
aF-5.3656256562206392e-05
aa(lp675
F3.1865188990012829e-05
aF2.310096921809941e-05
aa(lp676
F-4.2820891481967843e-05
aF-3.9652800005478583e-05
aa(lp677
F-0.69805813610569989
aF-0.92936224954693625
aasS'viewfile'
p678
g13
sba(imin_path.mod_minpath
minpath
p679
(dp680
g3
F13.868174293300269
sS'symdata'
p681
S'!!!======================================================================\n!!! generated configuration file\n!!!======================================================================\n0 !! action_type\n4 !! NOB\n2 !! dim\n1  !! sizekerT\n1 !! perm j=1\n2 !! perm j=2\n3 !! perm j=3\n4 !! perm j=4\n1.0D0 !! matrix (j,k)=(1,1)\n0.0D0 !! matrix (j,k)=(1,2)\n0.0D0 !! matrix (j,k)=(2,1)\n1.0D0 !! matrix (j,k)=(2,2)\n12  !! cyclic_order\n3 !! cyclic_perm j=1\n4 !! cyclic_perm j=2\n2 !! cyclic_perm j=3\n1 !! cyclic_perm j=4\n-0.5D0 !! cyclic_matrix (j,k)=(1,1)\n-0.8660254037844386D0  !!! imag= 5.8286708792820718e-16 !! cyclic_matrix (j,k)=(1,2)\n0.8660254037844386D0  !!! imag= -5.8286708792820718e-16 !! cyclic_matrix (j,k)=(2,1)\n-0.5D0 !! cyclic_matrix (j,k)=(2,2)\n2 !! cyclic_perm j=1\n1 !! cyclic_perm j=2\n4 !! cyclic_perm j=3\n3 !! cyclic_perm j=4\n-0.5D0 !! cyclic_matrix (j,k)=(1,1)\n0.8660254037844386D0  !!! imag= -5.8286708792820718e-16 !! cyclic_matrix (j,k)=(1,2)\n-0.8660254037844386D0  !!! imag= 5.8286708792820718e-16 !! cyclic_matrix (j,k)=(2,1)\n-0.5D0 !! cyclic_matrix (j,k)=(2,2)\n4 !! cyclic_perm j=1\n3 !! cyclic_perm j=2\n1 !! cyclic_perm j=3\n2 !! cyclic_perm j=4\n1.0D0 !! cyclic_matrix (j,k)=(1,1)\n0.0D0 !! cyclic_matrix (j,k)=(1,2)\n0.0D0 !! cyclic_matrix (j,k)=(2,1)\n1.0D0 !! cyclic_matrix (j,k)=(2,2)\n1 !! cyclic_perm j=1\n2 !! cyclic_perm j=2\n3 !! cyclic_perm j=3\n4 !! cyclic_perm j=4\n-0.5D0 !! cyclic_matrix (j,k)=(1,1)\n-0.8660254037844386D0  !!! imag= 5.8286708792820718e-16 !! cyclic_matrix (j,k)=(1,2)\n0.8660254037844386D0  !!! imag= -5.8286708792820718e-16 !! cyclic_matrix (j,k)=(2,1)\n-0.5D0 !! cyclic_matrix (j,k)=(2,2)\n3 !! cyclic_perm j=1\n4 !! cyclic_perm j=2\n2 !! cyclic_perm j=3\n1 !! cyclic_perm j=4\n-0.5D0 !! cyclic_matrix (j,k)=(1,1)\n0.8660254037844386D0  !!! imag= -5.8286708792820718e-16 !! cyclic_matrix (j,k)=(1,2)\n-0.8660254037844386D0  !!! imag= 5.8286708792820718e-16 !! cyclic_matrix (j,k)=(2,1)\n-0.5D0 !! cyclic_matrix (j,k)=(2,2)\n2 !! cyclic_perm j=1\n1 !! cyclic_perm j=2\n4 !! cyclic_perm j=3\n3 !! cyclic_perm j=4\n1.0D0 !! cyclic_matrix (j,k)=(1,1)\n0.0D0 !! cyclic_matrix (j,k)=(1,2)\n0.0D0 !! cyclic_matrix (j,k)=(2,1)\n1.0D0 !! cyclic_matrix (j,k)=(2,2)\n4 !! cyclic_perm j=1\n3 !! cyclic_perm j=2\n1 !! cyclic_perm j=3\n2 !! cyclic_perm j=4\n-0.5D0 !! cyclic_matrix (j,k)=(1,1)\n-0.8660254037844386D0  !!! imag= 5.8286708792820718e-16 !! cyclic_matrix (j,k)=(1,2)\n0.8660254037844386D0  !!! imag= -5.8286708792820718e-16 !! cyclic_matrix (j,k)=(2,1)\n-0.5D0 !! cyclic_matrix (j,k)=(2,2)\n1 !! cyclic_perm j=1\n2 !! cyclic_perm j=2\n3 !! cyclic_perm j=3\n4 !! cyclic_perm j=4\n-0.5D0 !! cyclic_matrix (j,k)=(1,1)\n0.8660254037844386D0  !!! imag= -5.8286708792820718e-16 !! cyclic_matrix (j,k)=(1,2)\n-0.8660254037844386D0  !!! imag= 5.8286708792820718e-16 !! cyclic_matrix (j,k)=(2,1)\n-0.5D0 !! cyclic_matrix (j,k)=(2,2)\n3 !! cyclic_perm j=1\n4 !! cyclic_perm j=2\n2 !! cyclic_perm j=3\n1 !! cyclic_perm j=4\n1.0D0 !! cyclic_matrix (j,k)=(1,1)\n0.0D0 !! cyclic_matrix (j,k)=(1,2)\n0.0D0 !! cyclic_matrix (j,k)=(2,1)\n1.0D0 !! cyclic_matrix (j,k)=(2,2)\n2 !! cyclic_perm j=1\n1 !! cyclic_perm j=2\n4 !! cyclic_perm j=3\n3 !! cyclic_perm j=4\n-0.5D0 !! cyclic_matrix (j,k)=(1,1)\n-0.8660254037844386D0  !!! imag= 5.8286708792820718e-16 !! cyclic_matrix (j,k)=(1,2)\n0.8660254037844386D0  !!! imag= -5.8286708792820718e-16 !! cyclic_matrix (j,k)=(2,1)\n-0.5D0 !! cyclic_matrix (j,k)=(2,2)\n4 !! cyclic_perm j=1\n3 !! cyclic_perm j=2\n1 !! cyclic_perm j=3\n2 !! cyclic_perm j=4\n-0.5D0 !! cyclic_matrix (j,k)=(1,1)\n0.8660254037844386D0  !!! imag= -5.8286708792820718e-16 !! cyclic_matrix (j,k)=(1,2)\n-0.8660254037844386D0  !!! imag= 5.8286708792820718e-16 !! cyclic_matrix (j,k)=(2,1)\n-0.5D0 !! cyclic_matrix (j,k)=(2,2)\n1 !! cyclic_perm j=1\n2 !! cyclic_perm j=2\n3 !! cyclic_perm j=3\n4 !! cyclic_perm j=4\n1.0D0 !! cyclic_matrix (j,k)=(1,1)\n0.0D0 !! cyclic_matrix (j,k)=(1,2)\n0.0D0 !! cyclic_matrix (j,k)=(2,1)\n1.0D0 !! cyclic_matrix (j,k)=(2,2)\n'
p682
sS'TODOLIST'
p683
(lp684
S'new()'
p685
aS'relax(200)'
p686
asS'NOB'
p687
I4
sS'withcoll'
p688
I0
sS'todo'
p689
g13
sS'omega'
p690
(lp691
F0.0
aF0.0
aF0.0
asS'massdata'
p692
S' 1.000000000000000000000000e+00 !! m(1)\n 1.000000000000000000000000e+00 !! m(2)\n 1.000000000000000000000000e+00 !! m(3)\n 1.000000000000000000000000e+00 !! m(4)\n'
p693
sS'dim'
p694
I2
sS'gammadata'
p695
S' 4 2 24  !! NOB,dim,steps\n 0.000000000000000E+00 0.000000000000000E+00 0.000000000000000E+00  !! omega\n 1.000000000000000  !! ALPHA\n 1.000000000000000  !! m( 1 )\n 1.000000000000000  !! m( 2 )\n 1.000000000000000  !! m( 3 )\n 1.000000000000000  !! m( 4 )\n 0.3046536661857920 -1.845933667155483\n -0.6140771234629380 -0.2940742672797532\n -0.2447473601381240 0.1667624033795082\n -2.034243448839265E-02 0.1176231827314028\n 6.878712947442567E-02 4.692838747541745E-02\n 7.188247621385031E-02 -1.608518788252755E-02\n 3.372960351710030E-02 -3.842426985486310E-02\n -5.258987913399585E-03 -3.144021498389938E-02\n -2.440331791069550E-02 -8.793633908073889E-03\n -2.112876670965868E-02 9.630080360874441E-03\n -6.173558899744823E-03 1.618318193320351E-02\n 7.644952464867377E-03 1.052692380919577E-02\n 1.241307994026880E-02 5.078695778095721E-04\n 8.233006019394144E-03 -7.035841682631593E-03\n 2.933926345150099E-04 -8.037449410113489E-03\n -5.442030623232996E-03 -4.018681462488797E-03\n -6.140095097182743E-03 1.432123991578299E-03\n -2.744747690600468E-03 4.480256441609366E-03\n 1.506437105766183E-03 4.040303015317590E-03\n 3.752174210718925E-03 1.146595442786478E-03\n 3.076033782718483E-03 -1.735678905284814E-03\n 6.437210963855002E-04 -2.921099891749766E-03\n -1.593407023055961E-03 -2.003961202853366E-03\n -2.257478943238217E-03 -8.048041144344698E-05\n -1.310379862732594E-03 1.490633646024311E-03\n -0.6920518523298266 -0.7771689366274025\n -0.9786913759998443 -1.512857114771634\n 0.2955953646330377 -5.865188486648003E-02\n 0.2624049628341645 -0.1958533894534831\n 1.292341926609381E-02 -0.1316796857436439\n -6.515872390871241E-02 -4.916124510055211E-02\n -7.357966475940758E-02 1.373707008727648E-02\n -3.289277653365880E-02 3.785475984060579E-02\n 4.563829300903308E-03 3.053303272580046E-02\n 2.476095475142361E-02 8.533444297934373E-03\n 2.081489348781085E-02 -1.004520859141722E-02\n 6.350847649228247E-03 -1.630784322049548E-02\n -7.824125524304920E-03 -1.075512817482424E-02\n -1.231672664750089E-02 -5.882158538657312E-04\n -8.337972462894180E-03 6.893462016529819E-03\n -2.290905495973411E-04 7.987236466315923E-03\n 5.378627166523287E-03 3.931402165082396E-03\n 6.182840831163186E-03 -1.461163638086564E-03\n 2.700699107944449E-03 -4.537011917286428E-03\n -1.479167845237050E-03 -4.060819172163775E-03\n -3.783895908629301E-03 -1.187878245444583E-03\n -3.056648154942596E-03 1.719735597238618E-03\n -6.656485131551603E-04 2.891203080369909E-03\n 1.608242593127144E-03 1.993022330171450E-03\n 2.241741423155480E-03 5.941294033221401E-05\n 1.321050366422085E-03 -1.498253835823859E-03\n -2.553765145723081 -0.3184926745285032\n -0.3270221159865557 0.9879189531674081\n 0.1522995767986274 -0.1039158182673283\n -3.183922539704642E-02 4.513535971063994E-02\n 1.484147763949790E-03 -6.027119500352895E-03\n -5.556498245508284E-03 5.146411134201549E-03\n 5.127481617037688E-04 -2.186367728701510E-03\n -1.447037412743574E-03 1.495646952919649E-03\n 2.844218036869850E-04 -7.690120526030230E-04\n -6.209918272329709E-04 6.629117051361044E-04\n 1.273387945992903E-04 -3.708261993713366E-04\n -3.141463224735561E-04 3.327405047140464E-04\n 7.908240264704880E-05 -1.990253572735287E-04\n -1.756892478423575E-04 1.993544526595337E-04\n 4.612270124664843E-05 -1.132986114435498E-04\n -1.133686009429716E-04 1.242129858401286E-04\n 2.641619461252621E-05 -7.576699802529230E-05\n -7.500979666045897E-05 7.800220777099548E-05\n 1.927726960094123E-05 -5.253252877014235E-05\n -4.956312732112313E-05 5.404788674149771E-05\n 1.447032996444795E-05 -3.496939660184960E-05\n -3.518087514313081E-05 3.958386561373839E-05\n 9.665784415802126E-06 -2.477295455757290E-05\n -2.625744600222128E-05 2.814869253666905E-05\n 6.813262058034605E-06 -1.890837696391732E-05\n -1.914841391478100E-05 2.038355340434395E-05\n 1.799518381688188 -9.114303669479579E-02\n 1.001059825800608 2.370871828759709\n 0.1661821820312728 0.4566419704135616\n 1.418162270100598E-02 -1.604437363666508E-02\n 5.934867458349063E-03 2.008362251259398E-02\n 1.928092679795032E-03 -2.913553509066892E-03\n 1.184440383853486E-03 4.534485523952608E-03\n 6.102104293020522E-04 -9.261369386623329E-04\n 4.107368088092922E-04 1.676194310701943E-03\n 2.633549865048591E-04 -4.027220949965882E-04\n 1.865344272485442E-04 7.859544299141305E-04\n 1.368575729901247E-04 -2.080792174220802E-04\n 1.000906567905080E-04 4.272297229019895E-04\n 7.933595507443603E-05 -1.190081766033607E-04\n 5.884374225339356E-05 2.556782775453258E-04\n 4.906651602530621E-05 -7.400004204256502E-05\n 3.698726209718298E-05 1.630462954316965E-04\n 3.226406268001802E-05 -4.896256126273729E-05\n 2.477131305507734E-05 1.092880044472047E-04\n 2.229386679199023E-05 -3.353172989531352E-05\n 1.725136794592788E-05 7.625219925995463E-05\n 1.579524736723681E-05 -2.364055756754260E-05\n 1.226163235385630E-05 5.466976593743178E-05\n 1.142187593104055E-05 -1.720981985475767E-05\n 8.924258024703598E-06 3.997584807514942E-05\n 8.477910225291631E-06 -1.276336360479607E-05\n 1.446298616364721 1.186804647850702\n'
p696
sS'log'
p697
g13
sS'SPMETHOD'
p698
I1
sg23
F3.7388477371670718e-13
sS'masses'
p699
(lp700
F1.0
aF1.0
aF1.0
aF1.0
asS'symfilename'
p701
g13
sS'invalid'
p702
I0
sS'steps'
p703
I24
sS'ALPHA'
p704
F1.0
sS'confdata'
p705
S'!! CONFIG STRING\n&CONFIG\nCOMMAND=howsol\nSPMETHOD=3\nALG=0\nsteps=24\nALPHA=1.000000000000000000000000e+00\n/\n0.000000000000000000000000e+00 !! omega(1)\n0.000000000000000000000000e+00 !! omega(2)\n0.000000000000000000000000e+00 !! omega(3)\n'
p706
sS'gamma'
p707
(lp708
(lp709
F0.30465366618579198
aF-1.8459336671554829
aa(lp710
F-0.61407712346293797
aF-0.29407426727975322
aa(lp711
F-0.24474736013812401
aF0.16676240337950821
aa(lp712
F-0.020342434488392649
aF0.11762318273140281
aa(lp713
F0.068787129474425668
aF0.04692838747541745
aa(lp714
F0.071882476213850313
aF-0.016085187882527548
aa(lp715
F0.033729603517100297
aF-0.038424269854863101
aa(lp716
F-0.0052589879133995848
aF-0.03144021498389938
aa(lp717
F-0.024403317910695499
aF-0.008793633908073889
aa(lp718
F-0.021128766709658679
aF0.0096300803608744406
aa(lp719
F-0.0061735588997448229
aF0.016183181933203509
aa(lp720
F0.0076449524648673772
aF0.01052692380919577
aa(lp721
F0.012413079940268801
aF0.00050786957780957209
aa(lp722
F0.0082330060193941436
aF-0.0070358416826315929
aa(lp723
F0.00029339263451500988
aF-0.0080374494101134886
aa(lp724
F-0.0054420306232329961
aF-0.0040186814624887969
aa(lp725
F-0.0061400950971827427
aF0.0014321239915782991
aa(lp726
F-0.0027447476906004679
aF0.0044802564416093664
aa(lp727
F0.0015064371057661829
aF0.0040403030153175904
aa(lp728
F0.003752174210718925
aF0.0011465954427864781
aa(lp729
F0.0030760337827184831
aF-0.001735678905284814
aa(lp730
F0.00064372109638550015
aF-0.002921099891749766
aa(lp731
F-0.001593407023055961
aF-0.0020039612028533659
aa(lp732
F-0.002257478943238217
aF-8.0480411443446982e-05
aa(lp733
F-0.0013103798627325941
aF0.001490633646024311
aa(lp734
F-0.69205185232982658
aF-0.7771689366274025
aa(lp735
F-0.97869137599984435
aF-1.5128571147716341
aa(lp736
F0.2955953646330377
aF-0.058651884866480028
aa(lp737
F0.26240496283416448
aF-0.1958533894534831
aa(lp738
F0.01292341926609381
aF-0.13167968574364389
aa(lp739
F-0.065158723908712413
aF-0.049161245100552108
aa(lp740
F-0.073579664759407581
aF0.01373707008727648
aa(lp741
F-0.032892776533658803
aF0.037854759840605788
aa(lp742
F0.0045638293009033076
aF0.03053303272580046
aa(lp743
F0.024760954751423609
aF0.0085334442979343728
aa(lp744
F0.020814893487810852
aF-0.010045208591417221
aa(lp745
F0.0063508476492282473
aF-0.016307843220495478
aa(lp746
F-0.0078241255243049201
aF-0.010755128174824239
aa(lp747
F-0.01231672664750089
aF-0.00058821585386573116
aa(lp748
F-0.0083379724628941804
aF0.0068934620165298187
aa(lp749
F-0.0002290905495973411
aF0.0079872364663159234
aa(lp750
F0.0053786271665232869
aF0.0039314021650823962
aa(lp751
F0.0061828408311631862
aF-0.001461163638086564
aa(lp752
F0.0027006991079444489
aF-0.0045370119172864279
aa(lp753
F-0.00147916784523705
aF-0.0040608191721637748
aa(lp754
F-0.0037838959086293009
aF-0.0011878782454445829
aa(lp755
F-0.003056648154942596
aF0.0017197355972386179
aa(lp756
F-0.00066564851315516031
aF0.0028912030803699088
aa(lp757
F0.0016082425931271439
aF0.0019930223301714502
aa(lp758
F0.0022417414231554801
aF5.9412940332214011e-05
aa(lp759
F0.001321050366422085
aF-0.0014982538358238591
aa(lp760
F-2.553765145723081
aF-0.31849267452850322
aa(lp761
F-0.32702211598655567
aF0.98791895316740808
aa(lp762
F0.15229957679862741
aF-0.10391581826732831
aa(lp763
F-0.031839225397046422
aF0.045135359710639943
aa(lp764
F0.00148414776394979
aF-0.0060271195003528946
aa(lp765
F-0.0055564982455082838
aF0.0051464111342015492
aa(lp766
F0.0005127481617037688
aF-0.00218636772870151
aa(lp767
F-0.0014470374127435741
aF0.001495646952919649
aa(lp768
F0.000284421803686985
aF-0.00076901205260302297
aa(lp769
F-0.00062099182723297092
aF0.00066291170513610442
aa(lp770
F0.00012733879459929029
aF-0.0003708261993713366
aa(lp771
F-0.00031414632247355612
aF0.00033274050471404642
aa(lp772
F7.90824026470488e-05
aF-0.00019902535727352871
aa(lp773
F-0.00017568924784235751
aF0.00019935445265953369
aa(lp774
F4.6122701246648433e-05
aF-0.0001132986114435498
aa(lp775
F-0.0001133686009429716
aF0.00012421298584012859
aa(lp776
F2.6416194612526211e-05
aF-7.5766998025292298e-05
aa(lp777
F-7.5009796660458969e-05
aF7.800220777099548e-05
aa(lp778
F1.9277269600941231e-05
aF-5.2532528770142348e-05
aa(lp779
F-4.9563127321123133e-05
aF5.4047886741497707e-05
aa(lp780
F1.447032996444795e-05
aF-3.4969396601849598e-05
aa(lp781
F-3.5180875143130813e-05
aF3.9583865613738393e-05
aa(lp782
F9.6657844158021256e-06
aF-2.4772954557572901e-05
aa(lp783
F-2.6257446002221279e-05
aF2.8148692536669049e-05
aa(lp784
F6.8132620580346054e-06
aF-1.8908376963917319e-05
aa(lp785
F-1.9148413914781001e-05
aF2.0383553404343951e-05
aa(lp786
F1.7995183816881879
aF-0.091143036694795787
aa(lp787
F1.001059825800608
aF2.370871828759709
aa(lp788
F0.1661821820312728
aF0.45664197041356158
aa(lp789
F0.01418162270100598
aF-0.016044373636665079
aa(lp790
F0.0059348674583490626
aF0.02008362251259398
aa(lp791
F0.0019280926797950321
aF-0.0029135535090668921
aa(lp792
F0.001184440383853486
aF0.0045344855239526083
aa(lp793
F0.00061021042930205216
aF-0.0009261369386623329
aa(lp794
F0.0004107368088092922
aF0.0016761943107019429
aa(lp795
F0.00026335498650485912
aF-0.00040272209499658818
aa(lp796
F0.00018653442724854419
aF0.0007859544299141305
aa(lp797
F0.00013685757299012469
aF-0.00020807921742208019
aa(lp798
F0.00010009065679050801
aF0.00042722972290198952
aa(lp799
F7.9335955074436026e-05
aF-0.0001190081766033607
aa(lp800
F5.8843742253393561e-05
aF0.00025567827754532582
aa(lp801
F4.9066516025306213e-05
aF-7.4000042042565023e-05
aa(lp802
F3.6987262097182977e-05
aF0.00016304629543169649
aa(lp803
F3.2264062680018017e-05
aF-4.8962561262737292e-05
aa(lp804
F2.4771313055077342e-05
aF0.0001092880044472047
aa(lp805
F2.2293866791990229e-05
aF-3.3531729895313523e-05
aa(lp806
F1.7251367945927881e-05
aF7.6252199259954634e-05
aa(lp807
F1.5795247367236809e-05
aF-2.3640557567542599e-05
aa(lp808
F1.22616323538563e-05
aF5.466976593743178e-05
aa(lp809
F1.142187593104055e-05
aF-1.7209819854757669e-05
aa(lp810
F8.9242580247035977e-06
aF3.9975848075149423e-05
aa(lp811
F8.4779102252916308e-06
aF-1.2763363604796071e-05
aa(lp812
F1.4462986163647209
aF1.1868046478507019
aasS'viewfile'
p813
g13
sba(imin_path.mod_minpath
minpath
p814
(dp815
g3
F14.05177173335731
sS'symdata'
p816
S'!!!======================================================================\n!!! generated configuration file\n!!!======================================================================\n0 !! action_type\n4 !! NOB\n2 !! dim\n1  !! sizekerT\n1 !! perm j=1\n2 !! perm j=2\n3 !! perm j=3\n4 !! perm j=4\n1.0D0 !! matrix (j,k)=(1,1)\n0.0D0 !! matrix (j,k)=(1,2)\n0.0D0 !! matrix (j,k)=(2,1)\n1.0D0 !! matrix (j,k)=(2,2)\n12  !! cyclic_order\n3 !! cyclic_perm j=1\n4 !! cyclic_perm j=2\n2 !! cyclic_perm j=3\n1 !! cyclic_perm j=4\n-0.5D0 !! cyclic_matrix (j,k)=(1,1)\n-0.8660254037844386D0  !!! imag= 5.8286708792820718e-16 !! cyclic_matrix (j,k)=(1,2)\n0.8660254037844386D0  !!! imag= -5.8286708792820718e-16 !! cyclic_matrix (j,k)=(2,1)\n-0.5D0 !! cyclic_matrix (j,k)=(2,2)\n2 !! cyclic_perm j=1\n1 !! cyclic_perm j=2\n4 !! cyclic_perm j=3\n3 !! cyclic_perm j=4\n-0.5D0 !! cyclic_matrix (j,k)=(1,1)\n0.8660254037844386D0  !!! imag= -5.8286708792820718e-16 !! cyclic_matrix (j,k)=(1,2)\n-0.8660254037844386D0  !!! imag= 5.8286708792820718e-16 !! cyclic_matrix (j,k)=(2,1)\n-0.5D0 !! cyclic_matrix (j,k)=(2,2)\n4 !! cyclic_perm j=1\n3 !! cyclic_perm j=2\n1 !! cyclic_perm j=3\n2 !! cyclic_perm j=4\n1.0D0 !! cyclic_matrix (j,k)=(1,1)\n0.0D0 !! cyclic_matrix (j,k)=(1,2)\n0.0D0 !! cyclic_matrix (j,k)=(2,1)\n1.0D0 !! cyclic_matrix (j,k)=(2,2)\n1 !! cyclic_perm j=1\n2 !! cyclic_perm j=2\n3 !! cyclic_perm j=3\n4 !! cyclic_perm j=4\n-0.5D0 !! cyclic_matrix (j,k)=(1,1)\n-0.8660254037844386D0  !!! imag= 5.8286708792820718e-16 !! cyclic_matrix (j,k)=(1,2)\n0.8660254037844386D0  !!! imag= -5.8286708792820718e-16 !! cyclic_matrix (j,k)=(2,1)\n-0.5D0 !! cyclic_matrix (j,k)=(2,2)\n3 !! cyclic_perm j=1\n4 !! cyclic_perm j=2\n2 !! cyclic_perm j=3\n1 !! cyclic_perm j=4\n-0.5D0 !! cyclic_matrix (j,k)=(1,1)\n0.8660254037844386D0  !!! imag= -5.8286708792820718e-16 !! cyclic_matrix (j,k)=(1,2)\n-0.8660254037844386D0  !!! imag= 5.8286708792820718e-16 !! cyclic_matrix (j,k)=(2,1)\n-0.5D0 !! cyclic_matrix (j,k)=(2,2)\n2 !! cyclic_perm j=1\n1 !! cyclic_perm j=2\n4 !! cyclic_perm j=3\n3 !! cyclic_perm j=4\n1.0D0 !! cyclic_matrix (j,k)=(1,1)\n0.0D0 !! cyclic_matrix (j,k)=(1,2)\n0.0D0 !! cyclic_matrix (j,k)=(2,1)\n1.0D0 !! cyclic_matrix (j,k)=(2,2)\n4 !! cyclic_perm j=1\n3 !! cyclic_perm j=2\n1 !! cyclic_perm j=3\n2 !! cyclic_perm j=4\n-0.5D0 !! cyclic_matrix (j,k)=(1,1)\n-0.8660254037844386D0  !!! imag= 5.8286708792820718e-16 !! cyclic_matrix (j,k)=(1,2)\n0.8660254037844386D0  !!! imag= -5.8286708792820718e-16 !! cyclic_matrix (j,k)=(2,1)\n-0.5D0 !! cyclic_matrix (j,k)=(2,2)\n1 !! cyclic_perm j=1\n2 !! cyclic_perm j=2\n3 !! cyclic_perm j=3\n4 !! cyclic_perm j=4\n-0.5D0 !! cyclic_matrix (j,k)=(1,1)\n0.8660254037844386D0  !!! imag= -5.8286708792820718e-16 !! cyclic_matrix (j,k)=(1,2)\n-0.8660254037844386D0  !!! imag= 5.8286708792820718e-16 !! cyclic_matrix (j,k)=(2,1)\n-0.5D0 !! cyclic_matrix (j,k)=(2,2)\n3 !! cyclic_perm j=1\n4 !! cyclic_perm j=2\n2 !! cyclic_perm j=3\n1 !! cyclic_perm j=4\n1.0D0 !! cyclic_matrix (j,k)=(1,1)\n0.0D0 !! cyclic_matrix (j,k)=(1,2)\n0.0D0 !! cyclic_matrix (j,k)=(2,1)\n1.0D0 !! cyclic_matrix (j,k)=(2,2)\n2 !! cyclic_perm j=1\n1 !! cyclic_perm j=2\n4 !! cyclic_perm j=3\n3 !! cyclic_perm j=4\n-0.5D0 !! cyclic_matrix (j,k)=(1,1)\n-0.8660254037844386D0  !!! imag= 5.8286708792820718e-16 !! cyclic_matrix (j,k)=(1,2)\n0.8660254037844386D0  !!! imag= -5.8286708792820718e-16 !! cyclic_matrix (j,k)=(2,1)\n-0.5D0 !! cyclic_matrix (j,k)=(2,2)\n4 !! cyclic_perm j=1\n3 !! cyclic_perm j=2\n1 !! cyclic_perm j=3\n2 !! cyclic_perm j=4\n-0.5D0 !! cyclic_matrix (j,k)=(1,1)\n0.8660254037844386D0  !!! imag= -5.8286708792820718e-16 !! cyclic_matrix (j,k)=(1,2)\n-0.8660254037844386D0  !!! imag= 5.8286708792820718e-16 !! cyclic_matrix (j,k)=(2,1)\n-0.5D0 !! cyclic_matrix (j,k)=(2,2)\n1 !! cyclic_perm j=1\n2 !! cyclic_perm j=2\n3 !! cyclic_perm j=3\n4 !! cyclic_perm j=4\n1.0D0 !! cyclic_matrix (j,k)=(1,1)\n0.0D0 !! cyclic_matrix (j,k)=(1,2)\n0.0D0 !! cyclic_matrix (j,k)=(2,1)\n1.0D0 !! cyclic_matrix (j,k)=(2,2)\n'
p817
sS'TODOLIST'
p818
(lp819
S'new()'
p820
aS'relax(200)'
p821
asS'NOB'
p822
I4
sS'withcoll'
p823
I0
sS'todo'
p824
g13
sS'omega'
p825
(lp826
F0.0
aF0.0
aF0.0
asS'massdata'
p827
S' 1.000000000000000000000000e+00 !! m(1)\n 1.000000000000000000000000e+00 !! m(2)\n 1.000000000000000000000000e+00 !! m(3)\n 1.000000000000000000000000e+00 !! m(4)\n'
p828
sS'dim'
p829
I2
sS'gammadata'
p830
S' 4 2 24  !! NOB,dim,steps\n 0.000000000000000E+00 0.000000000000000E+00 0.000000000000000E+00  !! omega\n 1.000000000000000  !! ALPHA\n 1.000000000000000  !! m( 1 )\n 1.000000000000000  !! m( 2 )\n 1.000000000000000  !! m( 3 )\n 1.000000000000000  !! m( 4 )\n -1.442040041247310 1.399081821045684\n 0.1984896104562524 -0.4199889038196649\n -0.1968089743521015 -4.874034085432818E-02\n -4.930029440838479E-03 1.618652719293018E-02\n -1.658373434089826E-02 -3.379299056242208E-03\n -2.909585007667831E-04 2.558998330976739E-03\n -4.907735273036000E-03 -1.414966099092273E-03\n -1.541689064079033E-04 1.071291359878990E-03\n -2.029138797548400E-03 -5.412051572451643E-04\n -8.330301369771642E-05 4.993304731222437E-04\n -1.017765874430351E-03 -2.730993473942719E-04\n -4.626151216130699E-05 2.706495344636940E-04\n -5.773582158491719E-04 -1.549365075948564E-04\n -2.786109023710480E-05 1.613282927610399E-04\n -3.557433234543522E-04 -9.534695783256289E-05\n -1.791120927407269E-05 1.029278707979958E-04\n -2.325421036884993E-04 -6.229231149318133E-05\n -1.206213686222193E-05 6.900793931743552E-05\n -1.588066359866705E-04 -4.252402512033154E-05\n -8.421343250119947E-06 4.803511160607430E-05\n -1.121101025294557E-04 -3.001397832063171E-05\n -6.045536974292817E-06 3.441383456527849E-05\n -8.118449045791537E-05 -2.172673993667174E-05\n -4.443706948636375E-06 2.523281536617240E-05\n -6.000899027532979E-05 -1.605814319743961E-05\n 1.282313332860783 1.752206975658309\n -0.3023353140972300 1.454878645978146\n -0.2100860993953844 0.8806643544860432\n 0.1664542409366269 4.796144851224196E-02\n 4.522810188851811E-03 -8.899096164447784E-04\n 1.289309473291134E-02 3.273622001374238E-03\n 1.827279684491756E-04 6.806739647377824E-04\n 3.854987157508181E-03 1.321537755802717E-03\n 1.633051543034891E-04 1.310913674539282E-04\n 1.571710928693472E-03 5.369108308932629E-04\n 7.582958934712614E-05 5.207886380105553E-05\n 7.875954103529550E-04 2.695516867117775E-04\n 4.136759938453728E-05 2.635740576142995E-05\n 4.464372821900431E-04 1.526485202592610E-04\n 2.481418850444443E-05 1.524616451855764E-05\n 2.749609985572138E-04 9.391714257107539E-05\n 1.589042901140383E-05 9.558723843167485E-06\n 1.796764694129410E-04 6.133209168528338E-05\n 1.068249104181184E-05 6.336040828426159E-06\n 1.226756518081691E-04 4.185793724564846E-05\n 7.450646747211395E-06 4.371720224997239E-06\n 8.658968866427641E-05 2.953795205960135E-05\n 5.344108941719369E-06 3.104701582028017E-06\n 6.269617086975508E-05 2.138028114023066E-05\n 3.927440728515889E-06 2.228679136147878E-06\n 4.635184036562228E-05 1.580100799867973E-05\n 0.3171012553060839 1.185446629317484\n 0.8762990871780050 -1.986619409698083\n 0.7000973654666182 -3.343219967672673E-02\n 6.899300610762327E-02 -0.1611698141153453\n -1.242926786004322E-02 -9.186952230340606E-03\n 7.494579662060866E-03 -1.622268440753116E-02\n -2.868616185541753E-03 -2.806413719649445E-03\n 1.819687251942793E-03 -4.103558177605354E-03\n -9.599750477740088E-04 -8.921532629599313E-04\n 7.561827221065336E-04 -1.714043390768917E-03\n -4.280064055736943E-04 -3.950381251757919E-04\n 3.793063766440695E-04 -8.614369248996709E-04\n -2.275500723806449E-04 -2.116727310430826E-04\n 2.154630835980720E-04 -4.889383843959122E-04\n -1.344009098926124E-04 -1.252820418362966E-04\n 1.328250697200661E-04 -3.013813875052083E-04\n -8.524948452550904E-05 -7.961153577441533E-05\n 8.685697544390594E-05 -1.970330908902789E-04\n -5.694952209509116E-05 -5.324194223613968E-05\n 5.933117151194801E-05 -1.345697157563233E-04\n -3.954574516216493E-05 -3.699656235371402E-05\n 4.189182953335396E-05 -9.500509708517454E-05\n -2.829043433078861E-05 -2.647375645268603E-05\n 3.034515847800609E-05 -6.881506619011975E-05\n -2.070904476391051E-05 -1.937105672072817E-05\n 2.242567045483202E-05 -5.086486546080512E-05\n -1.108794209791966 -0.9892693854584216\n 0.8680762681665337 -0.8673410573257456\n -0.6885008765274866 -0.4272432509896515\n -3.863827269214876E-02 0.1619487064574316\n 1.283648711202978E-02 -6.109665346144766E-03\n -3.803940054073938E-03 1.632836146239910E-02\n 2.976846717859388E-03 -4.332585760650834E-04\n -7.669391364149847E-04 4.196986520894896E-03\n 9.508387998784229E-04 -3.102294643730075E-04\n -2.987548532516014E-04 1.718337717120818E-03\n 4.354798299242568E-04 -1.563712117475108E-04\n -1.491359125666836E-04 8.649845855821653E-04\n 2.324439851574146E-04 -8.533420918204111E-05\n -8.454214993894316E-05 4.912263717315093E-04\n 1.374478116252711E-04 -5.129241544330268E-05\n -5.204274482289994E-05 3.028112027666854E-04\n 8.727026478817790E-05 -3.287505886674733E-05\n -3.399134116834415E-05 1.979933106981760E-04\n 5.832916791550147E-05 -2.210203790972134E-05\n -2.320018733344142E-05 1.352358036310047E-04\n 4.051644166507349E-05 -1.541026947735405E-05\n -1.637141566817463E-05 9.548112334620490E-05\n 2.899186236336032E-05 -1.104477969462005E-05\n -1.185683888984407E-05 6.916152498656077E-05\n 2.122531098403034E-05 -8.090437781592104E-06\n -8.768520545124510E-06 5.112200065956495E-05\n -0.4906203783749001 -1.948384219517372\n'
p831
sS'log'
p832
g13
sS'SPMETHOD'
p833
I1
sg23
F1.296637154605811e-05
sS'masses'
p834
(lp835
F1.0
aF1.0
aF1.0
aF1.0
asS'symfilename'
p836
g13
sS'invalid'
p837
I0
sS'steps'
p838
I24
sS'ALPHA'
p839
F1.0
sS'confdata'
p840
S'!! CONFIG STRING\n&CONFIG\nCOMMAND=howsol\nSPMETHOD=3\nALG=0\nsteps=24\nALPHA=1.000000000000000000000000e+00\n/\n0.000000000000000000000000e+00 !! omega(1)\n0.000000000000000000000000e+00 !! omega(2)\n0.000000000000000000000000e+00 !! omega(3)\n'
p841
sS'gamma'
p842
(lp843
(lp844
F-1.44204004124731
aF1.3990818210456839
aa(lp845
F0.19848961045625241
aF-0.41998890381966492
aa(lp846
F-0.19680897435210151
aF-0.048740340854328178
aa(lp847
F-0.0049300294408384793
aF0.016186527192930181
aa(lp848
F-0.01658373434089826
aF-0.003379299056242208
aa(lp849
F-0.00029095850076678309
aF0.0025589983309767389
aa(lp850
F-0.0049077352730359999
aF-0.0014149660990922729
aa(lp851
F-0.00015416890640790329
aF0.0010712913598789899
aa(lp852
F-0.0020291387975483999
aF-0.00054120515724516427
aa(lp853
F-8.3303013697716422e-05
aF0.00049933047312224373
aa(lp854
F-0.0010177658744303509
aF-0.00027309934739427189
aa(lp855
F-4.6261512161306993e-05
aF0.00027064953446369398
aa(lp856
F-0.00057735821584917191
aF-0.00015493650759485639
aa(lp857
F-2.7861090237104799e-05
aF0.00016132829276103991
aa(lp858
F-0.00035574332345435222
aF-9.534695783256289e-05
aa(lp859
F-1.7911209274072689e-05
aF0.0001029278707979958
aa(lp860
F-0.0002325421036884993
aF-6.2292311493181325e-05
aa(lp861
F-1.206213686222193e-05
aF6.9007939317435518e-05
aa(lp862
F-0.0001588066359866705
aF-4.2524025120331543e-05
aa(lp863
F-8.4213432501199468e-06
aF4.80351116060743e-05
aa(lp864
F-0.00011211010252945571
aF-3.0013978320631709e-05
aa(lp865
F-6.0455369742928172e-06
aF3.4413834565278488e-05
aa(lp866
F-8.118449045791537e-05
aF-2.172673993667174e-05
aa(lp867
F-4.4437069486363747e-06
aF2.5232815366172398e-05
aa(lp868
F-6.0008990275329788e-05
aF-1.6058143197439611e-05
aa(lp869
F1.282313332860783
aF1.752206975658309
aa(lp870
F-0.30233531409723002
aF1.454878645978146
aa(lp871
F-0.21008609939538439
aF0.88066435448604319
aa(lp872
F0.16645424093662689
aF0.047961448512241961
aa(lp873
F0.0045228101888518113
aF-0.0008899096164447784
aa(lp874
F0.01289309473291134
aF0.0032736220013742379
aa(lp875
F0.0001827279684491756
aF0.00068067396473778241
aa(lp876
F0.0038549871575081808
aF0.0013215377558027171
aa(lp877
F0.0001633051543034891
aF0.00013109136745392819
aa(lp878
F0.001571710928693472
aF0.00053691083089326287
aa(lp879
F7.5829589347126136e-05
aF5.207886380105553e-05
aa(lp880
F0.00078759541035295505
aF0.00026955168671177748
aa(lp881
F4.1367599384537282e-05
aF2.6357405761429951e-05
aa(lp882
F0.00044643728219004308
aF0.00015264852025926101
aa(lp883
F2.4814188504444432e-05
aF1.5246164518557641e-05
aa(lp884
F0.00027496099855721379
aF9.391714257107539e-05
aa(lp885
F1.589042901140383e-05
aF9.5587238431674854e-06
aa(lp886
F0.000179676469412941
aF6.1332091685283377e-05
aa(lp887
F1.068249104181184e-05
aF6.3360408284261586e-06
aa(lp888
F0.00012267565180816911
aF4.1857937245648458e-05
aa(lp889
F7.4506467472113946e-06
aF4.3717202249972387e-06
aa(lp890
F8.658968866427641e-05
aF2.9537952059601351e-05
aa(lp891
F5.3441089417193693e-06
aF3.104701582028017e-06
aa(lp892
F6.2696170869755083e-05
aF2.1380281140230659e-05
aa(lp893
F3.927440728515889e-06
aF2.228679136147878e-06
aa(lp894
F4.6351840365622282e-05
aF1.5801007998679732e-05
aa(lp895
F0.31710125530608391
aF1.1854466293174839
aa(lp896
F0.87629908717800498
aF-1.9866194096980829
aa(lp897
F0.70009736546661816
aF-0.033432199676726733
aa(lp898
F0.068993006107623267
aF-0.16116981411534531
aa(lp899
F-0.01242926786004322
aF-0.0091869522303406059
aa(lp900
F0.0074945796620608657
aF-0.016222684407531159
aa(lp901
F-0.002868616185541753
aF-0.0028064137196494449
aa(lp902
F0.001819687251942793
aF-0.0041035581776053542
aa(lp903
F-0.00095997504777400877
aF-0.0008921532629599313
aa(lp904
F0.00075618272210653363
aF-0.001714043390768917
aa(lp905
F-0.00042800640557369429
aF-0.00039503812517579189
aa(lp906
F0.00037930637664406949
aF-0.00086143692489967089
aa(lp907
F-0.00022755007238064491
aF-0.00021167273104308261
aa(lp908
F0.00021546308359807201
aF-0.0004889383843959122
aa(lp909
F-0.00013440090989261239
aF-0.0001252820418362966
aa(lp910
F0.00013282506972006611
aF-0.00030138138750520829
aa(lp911
F-8.5249484525509039e-05
aF-7.9611535774415333e-05
aa(lp912
F8.6856975443905943e-05
aF-0.00019703309089027889
aa(lp913
F-5.6949522095091159e-05
aF-5.3241942236139678e-05
aa(lp914
F5.9331171511948007e-05
aF-0.00013456971575632329
aa(lp915
F-3.9545745162164932e-05
aF-3.699656235371402e-05
aa(lp916
F4.1891829533353957e-05
aF-9.5005097085174538e-05
aa(lp917
F-2.8290434330788611e-05
aF-2.6473756452686029e-05
aa(lp918
F3.034515847800609e-05
aF-6.8815066190119748e-05
aa(lp919
F-2.0709044763910509e-05
aF-1.9371056720728169e-05
aa(lp920
F2.2425670454832019e-05
aF-5.086486546080512e-05
aa(lp921
F-1.1087942097919661
aF-0.98926938545842158
aa(lp922
F0.86807626816653372
aF-0.86734105732574562
aa(lp923
F-0.68850087652748659
aF-0.42724325098965149
aa(lp924
F-0.038638272692148763
aF0.16194870645743159
aa(lp925
F0.01283648711202978
aF-0.0061096653461447659
aa(lp926
F-0.003803940054073938
aF0.016328361462399101
aa(lp927
F0.0029768467178593878
aF-0.00043325857606508339
aa(lp928
F-0.00076693913641498468
aF0.0041969865208948964
aa(lp929
F0.0009508387998784229
aF-0.00031022946437300752
aa(lp930
F-0.00029875485325160141
aF0.0017183377171208179
aa(lp931
F0.00043547982992425682
aF-0.00015637121174751081
aa(lp932
F-0.0001491359125666836
aF0.00086498458558216529
aa(lp933
F0.00023244398515741459
aF-8.5334209182041107e-05
aa(lp934
F-8.4542149938943156e-05
aF0.00049122637173150928
aa(lp935
F0.0001374478116252711
aF-5.129241544330268e-05
aa(lp936
F-5.2042744822899938e-05
aF0.00030281120276668538
aa(lp937
F8.7270264788177898e-05
aF-3.2875058866747332e-05
aa(lp938
F-3.3991341168344152e-05
aF0.00019799331069817599
aa(lp939
F5.8329167915501467e-05
aF-2.2102037909721341e-05
aa(lp940
F-2.3200187333441421e-05
aF0.00013523580363100469
aa(lp941
F4.0516441665073488e-05
aF-1.5410269477354049e-05
aa(lp942
F-1.637141566817463e-05
aF9.5481123346204903e-05
aa(lp943
F2.8991862363360321e-05
aF-1.104477969462005e-05
aa(lp944
F-1.185683888984407e-05
aF6.9161524986560772e-05
aa(lp945
F2.1225310984030341e-05
aF-8.0904377815921042e-06
aa(lp946
F-8.7685205451245099e-06
aF5.1122000659564948e-05
aa(lp947
F-0.49062037837490008
aF-1.948384219517372
aasS'viewfile'
p948
g13
sba(imin_path.mod_minpath
minpath
p949
(dp950
g3
F16.211389363648141
sS'symdata'
p951
S'!!!======================================================================\n!!! generated configuration file\n!!!======================================================================\n0 !! action_type\n4 !! NOB\n2 !! dim\n1  !! sizekerT\n1 !! perm j=1\n2 !! perm j=2\n3 !! perm j=3\n4 !! perm j=4\n1.0D0 !! matrix (j,k)=(1,1)\n0.0D0 !! matrix (j,k)=(1,2)\n0.0D0 !! matrix (j,k)=(2,1)\n1.0D0 !! matrix (j,k)=(2,2)\n12  !! cyclic_order\n3 !! cyclic_perm j=1\n4 !! cyclic_perm j=2\n2 !! cyclic_perm j=3\n1 !! cyclic_perm j=4\n-0.5D0 !! cyclic_matrix (j,k)=(1,1)\n-0.8660254037844386D0  !!! imag= 5.8286708792820718e-16 !! cyclic_matrix (j,k)=(1,2)\n0.8660254037844386D0  !!! imag= -5.8286708792820718e-16 !! cyclic_matrix (j,k)=(2,1)\n-0.5D0 !! cyclic_matrix (j,k)=(2,2)\n2 !! cyclic_perm j=1\n1 !! cyclic_perm j=2\n4 !! cyclic_perm j=3\n3 !! cyclic_perm j=4\n-0.5D0 !! cyclic_matrix (j,k)=(1,1)\n0.8660254037844386D0  !!! imag= -5.8286708792820718e-16 !! cyclic_matrix (j,k)=(1,2)\n-0.8660254037844386D0  !!! imag= 5.8286708792820718e-16 !! cyclic_matrix (j,k)=(2,1)\n-0.5D0 !! cyclic_matrix (j,k)=(2,2)\n4 !! cyclic_perm j=1\n3 !! cyclic_perm j=2\n1 !! cyclic_perm j=3\n2 !! cyclic_perm j=4\n1.0D0 !! cyclic_matrix (j,k)=(1,1)\n0.0D0 !! cyclic_matrix (j,k)=(1,2)\n0.0D0 !! cyclic_matrix (j,k)=(2,1)\n1.0D0 !! cyclic_matrix (j,k)=(2,2)\n1 !! cyclic_perm j=1\n2 !! cyclic_perm j=2\n3 !! cyclic_perm j=3\n4 !! cyclic_perm j=4\n-0.5D0 !! cyclic_matrix (j,k)=(1,1)\n-0.8660254037844386D0  !!! imag= 5.8286708792820718e-16 !! cyclic_matrix (j,k)=(1,2)\n0.8660254037844386D0  !!! imag= -5.8286708792820718e-16 !! cyclic_matrix (j,k)=(2,1)\n-0.5D0 !! cyclic_matrix (j,k)=(2,2)\n3 !! cyclic_perm j=1\n4 !! cyclic_perm j=2\n2 !! cyclic_perm j=3\n1 !! cyclic_perm j=4\n-0.5D0 !! cyclic_matrix (j,k)=(1,1)\n0.8660254037844386D0  !!! imag= -5.8286708792820718e-16 !! cyclic_matrix (j,k)=(1,2)\n-0.8660254037844386D0  !!! imag= 5.8286708792820718e-16 !! cyclic_matrix (j,k)=(2,1)\n-0.5D0 !! cyclic_matrix (j,k)=(2,2)\n2 !! cyclic_perm j=1\n1 !! cyclic_perm j=2\n4 !! cyclic_perm j=3\n3 !! cyclic_perm j=4\n1.0D0 !! cyclic_matrix (j,k)=(1,1)\n0.0D0 !! cyclic_matrix (j,k)=(1,2)\n0.0D0 !! cyclic_matrix (j,k)=(2,1)\n1.0D0 !! cyclic_matrix (j,k)=(2,2)\n4 !! cyclic_perm j=1\n3 !! cyclic_perm j=2\n1 !! cyclic_perm j=3\n2 !! cyclic_perm j=4\n-0.5D0 !! cyclic_matrix (j,k)=(1,1)\n-0.8660254037844386D0  !!! imag= 5.8286708792820718e-16 !! cyclic_matrix (j,k)=(1,2)\n0.8660254037844386D0  !!! imag= -5.8286708792820718e-16 !! cyclic_matrix (j,k)=(2,1)\n-0.5D0 !! cyclic_matrix (j,k)=(2,2)\n1 !! cyclic_perm j=1\n2 !! cyclic_perm j=2\n3 !! cyclic_perm j=3\n4 !! cyclic_perm j=4\n-0.5D0 !! cyclic_matrix (j,k)=(1,1)\n0.8660254037844386D0  !!! imag= -5.8286708792820718e-16 !! cyclic_matrix (j,k)=(1,2)\n-0.8660254037844386D0  !!! imag= 5.8286708792820718e-16 !! cyclic_matrix (j,k)=(2,1)\n-0.5D0 !! cyclic_matrix (j,k)=(2,2)\n3 !! cyclic_perm j=1\n4 !! cyclic_perm j=2\n2 !! cyclic_perm j=3\n1 !! cyclic_perm j=4\n1.0D0 !! cyclic_matrix (j,k)=(1,1)\n0.0D0 !! cyclic_matrix (j,k)=(1,2)\n0.0D0 !! cyclic_matrix (j,k)=(2,1)\n1.0D0 !! cyclic_matrix (j,k)=(2,2)\n2 !! cyclic_perm j=1\n1 !! cyclic_perm j=2\n4 !! cyclic_perm j=3\n3 !! cyclic_perm j=4\n-0.5D0 !! cyclic_matrix (j,k)=(1,1)\n-0.8660254037844386D0  !!! imag= 5.8286708792820718e-16 !! cyclic_matrix (j,k)=(1,2)\n0.8660254037844386D0  !!! imag= -5.8286708792820718e-16 !! cyclic_matrix (j,k)=(2,1)\n-0.5D0 !! cyclic_matrix (j,k)=(2,2)\n4 !! cyclic_perm j=1\n3 !! cyclic_perm j=2\n1 !! cyclic_perm j=3\n2 !! cyclic_perm j=4\n-0.5D0 !! cyclic_matrix (j,k)=(1,1)\n0.8660254037844386D0  !!! imag= -5.8286708792820718e-16 !! cyclic_matrix (j,k)=(1,2)\n-0.8660254037844386D0  !!! imag= 5.8286708792820718e-16 !! cyclic_matrix (j,k)=(2,1)\n-0.5D0 !! cyclic_matrix (j,k)=(2,2)\n1 !! cyclic_perm j=1\n2 !! cyclic_perm j=2\n3 !! cyclic_perm j=3\n4 !! cyclic_perm j=4\n1.0D0 !! cyclic_matrix (j,k)=(1,1)\n0.0D0 !! cyclic_matrix (j,k)=(1,2)\n0.0D0 !! cyclic_matrix (j,k)=(2,1)\n1.0D0 !! cyclic_matrix (j,k)=(2,2)\n'
p952
sS'TODOLIST'
p953
(lp954
S'new()'
p955
aS'relax(200)'
p956
asS'NOB'
p957
I4
sS'withcoll'
p958
I0
sS'todo'
p959
g13
sS'omega'
p960
(lp961
F0.0
aF0.0
aF0.0
asS'massdata'
p962
S' 1.000000000000000000000000e+00 !! m(1)\n 1.000000000000000000000000e+00 !! m(2)\n 1.000000000000000000000000e+00 !! m(3)\n 1.000000000000000000000000e+00 !! m(4)\n'
p963
sS'dim'
p964
I2
sS'gammadata'
p965
S' 4 2 24  !! NOB,dim,steps\n 0.000000000000000E+00 0.000000000000000E+00 0.000000000000000E+00  !! omega\n 1.000000000000000  !! ALPHA\n 1.000000000000000  !! m( 1 )\n 1.000000000000000  !! m( 2 )\n 1.000000000000000  !! m( 3 )\n 1.000000000000000  !! m( 4 )\n -1.104823033927024 -0.1356629722643742\n -0.3121999589313730 0.7727066179139159\n -0.1331469583966269 -5.379593493774776E-02\n -3.818120369629102E-03 9.449991241840150E-03\n -1.431879447258633E-02 -5.785283757963418E-03\n -7.785024184978843E-04 1.926822709696550E-03\n -4.109696195180566E-03 -1.660458126810988E-03\n -2.774629718516886E-04 6.867312709127728E-04\n -1.702183703280156E-03 -6.877405601784549E-04\n -1.283508050442050E-04 3.176730605978012E-04\n -8.570240287123568E-04 -3.462670829577422E-04\n -6.909641758602653E-05 1.710162273102726E-04\n -4.870515828225459E-04 -1.967855336416950E-04\n -4.106003855120866E-05 1.016251367518348E-04\n -3.004437771817487E-04 -1.213895839931565E-04\n -2.614166894163573E-05 6.470161195298689E-05\n -1.965310289488483E-04 -7.940527199341981E-05\n -1.750287765581746E-05 4.332027923219673E-05\n -1.342781650950661E-04 -5.425298121716077E-05\n -1.217040316958554E-05 3.012220470498543E-05\n -9.482608753167950E-05 -3.831298962203404E-05\n -8.709750588152369E-06 2.155695965777997E-05\n -6.868310032674525E-05 -2.775032671414120E-05\n -6.366078379451746E-06 1.575628296300466E-05\n -5.076249891319655E-05 -2.050978949648136E-05\n 0.8889733279348120 0.6698990972973641\n 1.104823033927024 0.1356629722643741\n 0.3121999589313728 -0.7727066179139157\n 0.1331469583966268 5.379593493774770E-02\n 3.818120369629091E-03 -9.449991241840136E-03\n 1.431879447258633E-02 5.785283757963414E-03\n 7.785024184978860E-04 -1.926822709696555E-03\n 4.109696195180567E-03 1.660458126810987E-03\n 2.774629718516747E-04 -6.867312709127717E-04\n 1.702183703280156E-03 6.877405601784549E-04\n 1.283508050442056E-04 -3.176730605978012E-04\n 8.570240287123568E-04 3.462670829577439E-04\n 6.909641758602516E-05 -1.710162273102726E-04\n 4.870515828225459E-04 1.967855336416948E-04\n 4.106003855120844E-05 -1.016251367518348E-04\n 3.004437771817522E-04 1.213895839931561E-04\n 2.614166894163552E-05 -6.470161195298689E-05\n 1.965310289488479E-04 7.940527199341981E-05\n 1.750287765581735E-05 -4.332027923219630E-05\n 1.342781650950664E-04 5.425298121715903E-05\n 1.217040316958554E-05 -3.012220470498522E-05\n 9.482608753167907E-05 3.831298962203447E-05\n 8.709750588153237E-06 -2.155695965777997E-05\n 6.868310032674514E-05 2.775032671414120E-05\n 6.366078379451746E-06 -1.575628296300474E-05\n 5.076249891319395E-05 2.050978949648136E-05\n -0.8889733279348120 -0.6698990972973643\n 0.1356629722643747 -1.104823033927024\n -0.7727066179139158 -0.3121999589313728\n 5.379593493774770E-02 -0.1331469583966269\n -9.449991241840146E-03 -3.818120369629127E-03\n 5.785283757963423E-03 -1.431879447258633E-02\n -1.926822709696557E-03 -7.785024184978817E-04\n 1.660458126810989E-03 -4.109696195180567E-03\n -6.867312709127882E-04 -2.774629718516820E-04\n 6.877405601784549E-04 -1.702183703280156E-03\n -3.176730605978026E-04 -1.283508050442059E-04\n 3.462670829577422E-04 -8.570240287123533E-04\n -1.710162273102716E-04 -6.909641758602678E-05\n 1.967855336416952E-04 -4.870515828225463E-04\n -1.016251367518347E-04 -4.106003855120985E-05\n 1.213895839931563E-04 -3.004437771817508E-04\n -6.470161195298711E-05 -2.614166894163595E-05\n 7.940527199342025E-05 -1.965310289488483E-04\n -4.332027923219662E-05 -1.750287765581778E-05\n 5.425298121716012E-05 -1.342781650950668E-04\n -3.012220470498522E-05 -1.217040316958511E-05\n 3.831298962203404E-05 -9.482608753167863E-05\n -2.155695965777929E-05 -8.709750588152586E-06\n 2.775032671414119E-05 -6.868310032674533E-05\n -1.575628296300461E-05 -6.366078379451665E-06\n 2.050978949648223E-05 -5.076249891319308E-05\n -0.6698990972973635 0.8889733279348123\n -0.1356629722643748 1.104823033927024\n 0.7727066179139161 0.3121999589313725\n -5.379593493774776E-02 0.1331469583966270\n 9.449991241840155E-03 3.818120369629099E-03\n -5.785283757963418E-03 1.431879447258633E-02\n 1.926822709696560E-03 7.785024184978851E-04\n -1.660458126810982E-03 4.109696195180569E-03\n 6.867312709127604E-04 2.774629718516825E-04\n -6.877405601784514E-04 1.702183703280158E-03\n 3.176730605978019E-04 1.283508050442059E-04\n -3.462670829577491E-04 8.570240287123533E-04\n 1.710162273102730E-04 6.909641758602592E-05\n -1.967855336416947E-04 4.870515828225464E-04\n 1.016251367518348E-04 4.106003855120985E-05\n -1.213895839931554E-04 3.004437771817511E-04\n 6.470161195298732E-05 2.614166894163508E-05\n -7.940527199341960E-05 1.965310289488479E-04\n 4.332027923219651E-05 1.750287765581735E-05\n -5.425298121716012E-05 1.342781650950659E-04\n 3.012220470498522E-05 1.217040316958554E-05\n -3.831298962203447E-05 9.482608753167950E-05\n 2.155695965777929E-05 8.709750588152559E-06\n -2.775032671414107E-05 6.868310032674533E-05\n 1.575628296300482E-05 6.366078379451692E-06\n -2.050978949647963E-05 5.076249891319395E-05\n 0.6698990972973635 -0.8889733279348119\n'
p966
sS'log'
p967
g13
sS'SPMETHOD'
p968
I1
sg23
F5.4582448055310784e-12
sS'masses'
p969
(lp970
F1.0
aF1.0
aF1.0
aF1.0
asS'symfilename'
p971
g13
sS'invalid'
p972
I0
sS'steps'
p973
I24
sS'ALPHA'
p974
F1.0
sS'confdata'
p975
S'!! CONFIG STRING\n&CONFIG\nCOMMAND=howsol\nSPMETHOD=3\nALG=0\nsteps=24\nALPHA=1.000000000000000000000000e+00\n/\n0.000000000000000000000000e+00 !! omega(1)\n0.000000000000000000000000e+00 !! omega(2)\n0.000000000000000000000000e+00 !! omega(3)\n'
p976
sS'gamma'
p977
(lp978
(lp979
F-1.104823033927024
aF-0.13566297226437421
aa(lp980
F-0.31219995893137298
aF0.77270661791391593
aa(lp981
F-0.13314695839662691
aF-0.053795934937747758
aa(lp982
F-0.003818120369629102
aF0.0094499912418401499
aa(lp983
F-0.01431879447258633
aF-0.0057852837579634182
aa(lp984
F-0.00077850241849788428
aF0.0019268227096965499
aa(lp985
F-0.0041096961951805656
aF-0.001660458126810988
aa(lp986
F-0.00027746297185168861
aF0.00068673127091277279
aa(lp987
F-0.001702183703280156
aF-0.00068774056017845489
aa(lp988
F-0.00012835080504420499
aF0.00031767306059780122
aa(lp989
F-0.00085702402871235678
aF-0.00034626708295774222
aa(lp990
F-6.9096417586026525e-05
aF0.00017101622731027259
aa(lp991
F-0.00048705158282254588
aF-0.00019678553364169501
aa(lp992
F-4.1060038551208663e-05
aF0.00010162513675183479
aa(lp993
F-0.00030044377718174871
aF-0.0001213895839931565
aa(lp994
F-2.6141668941635729e-05
aF6.470161195298689e-05
aa(lp995
F-0.00019653102894884829
aF-7.9405271993419815e-05
aa(lp996
F-1.750287765581746e-05
aF4.332027923219673e-05
aa(lp997
F-0.00013427816509506611
aF-5.4252981217160767e-05
aa(lp998
F-1.217040316958554e-05
aF3.0122204704985429e-05
aa(lp999
F-9.4826087531679499e-05
aF-3.8312989622034041e-05
aa(lp1000
F-8.7097505881523693e-06
aF2.1556959657779971e-05
aa(lp1001
F-6.868310032674525e-05
aF-2.7750326714141201e-05
aa(lp1002
F-6.3660783794517459e-06
aF1.5756282963004661e-05
aa(lp1003
F-5.0762498913196549e-05
aF-2.050978949648136e-05
aa(lp1004
F0.88897332793481199
aF0.66989909729736408
aa(lp1005
F1.104823033927024
aF0.1356629722643741
aa(lp1006
F0.31219995893137281
aF-0.77270661791391571
aa(lp1007
F0.1331469583966268
aF0.053795934937747703
aa(lp1008
F0.0038181203696290912
aF-0.0094499912418401361
aa(lp1009
F0.01431879447258633
aF0.0057852837579634138
aa(lp1010
F0.00077850241849788601
aF-0.0019268227096965549
aa(lp1011
F0.0041096961951805674
aF0.0016604581268109869
aa(lp1012
F0.00027746297185167468
aF-0.0006867312709127717
aa(lp1013
F0.001702183703280156
aF0.00068774056017845489
aa(lp1014
F0.00012835080504420559
aF-0.00031767306059780122
aa(lp1015
F0.00085702402871235678
aF0.0003462670829577439
aa(lp1016
F6.9096417586025157e-05
aF-0.00017101622731027259
aa(lp1017
F0.00048705158282254588
aF0.00019678553364169479
aa(lp1018
F4.1060038551208439e-05
aF-0.00010162513675183479
aa(lp1019
F0.00030044377718175218
aF0.00012138958399315611
aa(lp1020
F2.6141668941635519e-05
aF-6.470161195298689e-05
aa(lp1021
F0.00019653102894884791
aF7.9405271993419815e-05
aa(lp1022
F1.7502877655817348e-05
aF-4.3320279232196297e-05
aa(lp1023
F0.00013427816509506641
aF5.4252981217159033e-05
aa(lp1024
F1.217040316958554e-05
aF-3.0122204704985219e-05
aa(lp1025
F9.4826087531679065e-05
aF3.8312989622034468e-05
aa(lp1026
F8.7097505881532367e-06
aF-2.1556959657779971e-05
aa(lp1027
F6.8683100326745141e-05
aF2.7750326714141201e-05
aa(lp1028
F6.3660783794517459e-06
aF-1.5756282963004739e-05
aa(lp1029
F5.0762498913193947e-05
aF2.050978949648136e-05
aa(lp1030
F-0.88897332793481199
aF-0.6698990972973643
aa(lp1031
F0.13566297226437471
aF-1.104823033927024
aa(lp1032
F-0.77270661791391582
aF-0.31219995893137281
aa(lp1033
F0.053795934937747703
aF-0.13314695839662691
aa(lp1034
F-0.0094499912418401465
aF-0.0038181203696291272
aa(lp1035
F0.0057852837579634234
aF-0.01431879447258633
aa(lp1036
F-0.0019268227096965571
aF-0.00077850241849788167
aa(lp1037
F0.0016604581268109891
aF-0.0041096961951805674
aa(lp1038
F-0.00068673127091278818
aF-0.000277462971851682
aa(lp1039
F0.00068774056017845489
aF-0.001702183703280156
aa(lp1040
F-0.00031767306059780258
aF-0.00012835080504420589
aa(lp1041
F0.00034626708295774222
aF-0.00085702402871235331
aa(lp1042
F-0.00017101622731027159
aF-6.9096417586026783e-05
aa(lp1043
F0.0001967855336416952
aF-0.00048705158282254631
aa(lp1044
F-0.0001016251367518347
aF-4.1060038551209849e-05
aa(lp1045
F0.0001213895839931563
aF-0.00030044377718175082
aa(lp1046
F-6.4701611952987107e-05
aF-2.614166894163595e-05
aa(lp1047
F7.9405271993420248e-05
aF-0.00019653102894884829
aa(lp1048
F-4.3320279232196622e-05
aF-1.7502877655817779e-05
aa(lp1049
F5.4252981217160117e-05
aF-0.00013427816509506681
aa(lp1050
F-3.0122204704985219e-05
aF-1.217040316958511e-05
aa(lp1051
F3.8312989622034041e-05
aF-9.4826087531678632e-05
aa(lp1052
F-2.155695965777929e-05
aF-8.7097505881525861e-06
aa(lp1053
F2.7750326714141191e-05
aF-6.8683100326745331e-05
aa(lp1054
F-1.575628296300461e-05
aF-6.3660783794516646e-06
aa(lp1055
F2.0509789496482231e-05
aF-5.076249891319308e-05
aa(lp1056
F-0.66989909729736352
aF0.88897332793481232
aa(lp1057
F-0.13566297226437479
aF1.104823033927024
aa(lp1058
F0.77270661791391615
aF0.31219995893137248
aa(lp1059
F-0.053795934937747758
aF0.13314695839662699
aa(lp1060
F0.0094499912418401551
aF0.003818120369629099
aa(lp1061
F-0.0057852837579634182
aF0.01431879447258633
aa(lp1062
F0.0019268227096965599
aF0.00077850241849788514
aa(lp1063
F-0.0016604581268109819
aF0.0041096961951805691
aa(lp1064
F0.00068673127091276043
aF0.00027746297185168248
aa(lp1065
F-0.00068774056017845142
aF0.001702183703280158
aa(lp1066
F0.00031767306059780187
aF0.00012835080504420589
aa(lp1067
F-0.00034626708295774911
aF0.00085702402871235331
aa(lp1068
F0.000171016227310273
aF6.9096417586025916e-05
aa(lp1069
F-0.00019678553364169471
aF0.00048705158282254642
aa(lp1070
F0.00010162513675183479
aF4.1060038551209849e-05
aa(lp1071
F-0.0001213895839931554
aF0.00030044377718175109
aa(lp1072
F6.4701611952987324e-05
aF2.6141668941635079e-05
aa(lp1073
F-7.9405271993419598e-05
aF0.00019653102894884791
aa(lp1074
F4.3320279232196507e-05
aF1.7502877655817348e-05
aa(lp1075
F-5.4252981217160117e-05
aF0.00013427816509506589
aa(lp1076
F3.0122204704985219e-05
aF1.217040316958554e-05
aa(lp1077
F-3.8312989622034468e-05
aF9.4826087531679499e-05
aa(lp1078
F2.155695965777929e-05
aF8.709750588152559e-06
aa(lp1079
F-2.7750326714141069e-05
aF6.8683100326745331e-05
aa(lp1080
F1.575628296300482e-05
aF6.3660783794516917e-06
aa(lp1081
F-2.0509789496479629e-05
aF5.0762498913193947e-05
aa(lp1082
F0.66989909729736352
aF-0.88897332793481187
aasS'viewfile'
p1083
g13
sba.